(dp0
I0
I2
sI1
I3
sI2
I6
sI3
I7
sI4
I9
sI5
I11
sI6
I13
sI7
I15
sI8
I18
sI9
I19
sI10
I21
sI11
I23
sI12
I24
sI13
I25
sI14
I28
sI15
I31
sI16
I33
sI17
I35
sI18
I37
sI19
I39
sI20
I41
sI21
I44
sI22
I47
sI23
I48
sI24
I49
sI25
I51
sI26
I53
sI27
I55
sI28
I57
sI29
I59
sI30
I61
sI31
I63
sI32
I65
sI33
I70
sI34
I71
sI35
I72
sI36
I73
sI37
I79
sI38
I80
sI39
I81
sI40
I82
sI41
I87
sI42
I88
sI43
I89
sI44
I90
sI45
I95
sI46
I96
sI47
I97
sI48
I98
sI49
I102
sI50
I104
sI51
I105
sI52
I106
sI53
I111
sI54
I112
sI55
I113
sI56
I114
sI57
I118
sI58
I119
sI59
I120
sI60
I125
sI61
I126
sI62
I127
sI63
I128
sI64
I131
sI65
I132
sI66
I136
sI67
I137
sI68
I138
sI69
I141
sI70
I142
sI71
I145
sI72
I146
sI73
I147
sI74
I148
sI75
I154
sI76
I155
sI77
I156
sI78
I157
sI79
I158
sI80
I159
sI81
I160
sI82
I165
sI83
I166
sI84
I167
sI85
I171
sI86
I172
sI87
I174
sI88
I178
sI89
I180
sI90
I181
sI91
I183
sI92
I184
sI93
I185
sI94
I189
sI95
I191
sI96
I192
sI97
I196
sI98
I197
sI99
I199
s.