(dp0
I2
(lp1
F6.015
aF2.732
aF5.772
aF3.976
aF2.823
aF3.67
aF0.968
aF5.348
aF8.386
aF1.538
aF5.674
aF4.65
aF1.53
aF0.105
aF4.302
aF2.534
aF3.341
aF4.652
aF6.208
aF5.971
aF3.545
aF3.731
aF5.155
aF3.455
aF4.189
aF5.331
aF3.514
aF3.142
aF6.048
aF5.201
aF4.433
aF4.209
aF2.709
aF5.062
aF10.065
aF1.465
aF9.512
aF8.239
aF6.947
aF7.61
aF3.088
aF3.369
asI3
(lp2
F6.522
aF1.304
aF6.024
aF4.54
aF7.772
aF1.784
aF2.016
aF6.685
aF4.387
aF4.462
aF2.462
aF4.265
aF5.051
aF6.582
aF7.78
aF12.26
aF8.527
aF7.191
aF5.224
aF5.347
aF3.719
aF3.16
aF2.594
aF4.615
aF4.22
aF5.397
aF6.404
aF1.869
aF5.586
aF1.065
aF1.71
aF2.231
aF7.525
aF1.627
aF3.175
aF2.464
aF3.291
asI6
(lp3
F5.677
aF3.914
aF3.732
aF6.627
aF4.352
aF6.11
aF8.974
aF13.402
aF4.167
aF5.647
aF2.874
aF5.779
aF3.452
aF4.801
aF4.874
aF11.554
aF4.735
aF5.807
aF3.423
aF3.306
aF3.672
aF3.564
aF5.722
aF5.482
aF5.107
aF1.102
aF3.643
aF5.993
aF5.342
aF1.877
aF5.317
aF5.607
aF5.227
aF2.004
aF4.236
aF6.751
aF2.126
aF5.688
aF3.873
aF2.536
aF7.338
asI7
(lp4
F8.551
aF4.455
aF9.724
aF6.248
aF5.821
aF2.971
aF3.652
aF3.224
aF2.296
aF3.299
aF3.31
aF5.06
aF2.787
aF1.929
aF5.857
aF4.229
aF2.52
aF1.866
aF6.144
aF5.731
aF5.186
aF5.561
aF2.754
aF7.294
aF4.375
aF7.557
aF3.719
aF5.158
aF4.824
aF4.271
aF8.081
aF4.827
aF2.672
aF6.704
aF6.881
asI9
(lp5
F11.004
aF7.671
aF6.316
aF3.767
aF5.99
aF2.85
aF7.139
aF1.976
aF8.288
aF6.079
aF3.745
aF0.887
aF4.081
aF2.331
aF6.424
aF4.163
aF5.283
aF5.11
aF2.697
aF1.994
aF7.615
aF4.456
aF3.647
aF2.678
aF2.991
aF8.972
aF2.239
aF5.156
aF0.98
aF5.754
aF4.783
aF8.662
aF4.643
aF6.606
aF7.313
aF5.659
asI11
(lp6
F9.027
aF4.48
aF7.921
aF4.162
aF7.887
aF4.929
aF2.83
aF7.327
aF5.963
aF3.281
aF10.896
aF4.634
aF3.879
aF4.919
aF2.765
aF7.699
aF4.275
aF6.141
aF2.418
aF7.998
aF9.484
aF2.444
aF2.978
aF8.966
aF4.091
aF4.766
aF5.093
aF6.676
aF3.068
aF7.058
aF2.92
aF7.108
aF7.203
aF3.611
aF6.344
aF5.388
asI13
(lp7
F9.756
aF4.808
aF8.424
aF8.674
aF4.609
aF6.185
aF5.082
aF4.577
aF3.353
aF7.596
aF3.671
aF3.847
aF5.096
aF7.98
aF4.407
aF13.902
aF7.762
aF6.715
aF6.166
aF4.703
aF6.815
aF3.711
aF5.451
aF5.57
aF9.442
aF6.772
aF9.026
aF3.34
aF2.802
aF5.584
aF2.856
aF9.194
aF3.027
aF4.496
aF3.239
aF5.632
asI15
(lp8
F5.729
aF5.182
aF3.2
aF5.205
aF4.354
aF5.19
aF6.302
aF5.32
aF9.764
aF4.388
aF6.744
aF3.285
aF7.075
aF7.369
aF1.942
aF5.341
aF6.965
aF4.567
aF3.75
aF4.115
aF3.406
aF5.906
aF11.374
aF5.767
aF5.332
aF3.93
aF1.956
aF6.099
aF2.788
aF5.878
aF3.236
aF6.006
aF5.81
aF4.504
aF5.807
asI18
(lp9
F6.824
aF8.103
aF9.553
aF7.311
aF6.062
aF6.792
aF7.397
aF9.43
aF6.624
aF7.323
aF4.552
aF6.99
aF6.648
aF4.131
aF5.728
aF8.176
aF4.454
aF5.804
aF6.38
aF10.909
aF3.651
aF6.748
aF2.66
aF5.292
aF6.796
aF5.395
aF6.991
aF6.816
asI19
(lp10
F5.579
aF5.657
aF7.88
aF3.937
aF2.017
aF4.626
aF4.609
aF5.365
aF6.869
aF10.303
aF3.305
aF4.445
aF12.452
aF6.497
aF5.732
aF4.236
aF5.793
aF8.323
aF7.239
aF7.51
aF2.78
aF2.792
aF5.303
aF5.045
aF7.092
aF5.469
aF6.008
aF8.594
aF5.159
aF2.125
aF5.76
aF4.616
asI21
(lp11
F6.912
aF5.88
aF3.396
aF11.406
aF3.203
aF5.445
aF6.921
aF6.221
aF4.252
aF4.23
aF3.351
aF2.056
aF7.715
aF9.849
aF6.171
aF9.652
aF7.438
aF3.589
aF4.654
aF4.448
aF7.013
aF5.779
aF6.09
aF4.32
aF9.324
aF5.98
aF7.252
aF7.3
aF5.143
aF6.832
aF4.445
aF6.469
aF8.378
aF6.298
asI23
(lp12
F10.213
aF6.757
aF6.367
aF8.197
aF3.425
aF3.373
aF5.278
aF4.799
aF6.044
aF6.406
aF5.044
aF8.912
aF6.576
aF5.561
aF4.789
aF5.188
aF5.172
aF3.984
aF7.933
aF3.716
aF7.403
aF9.689
aF9.436
aF3.59
aF6.14
aF2.931
aF6.861
aF2.009
aF9.54
aF6.064
asI24
(lp13
F0.984
aF3.355
aF6.325
aF1.728
aF5.243
aF4.41
aF4.429
aF2.643
aF4.584
aF3.475
aF7.189
aF4.098
aF6.278
aF4.123
aF1.934
aF2.214
aF2.439
aF5.031
aF6.131
aF3.381
aF9.508
aF6.695
aF10.764
aF7.258
aF3.166
aF2.894
aF4.007
aF2.74
aF5.366
asI25
(lp14
F4.208
aF1.54
aF3.663
aF4.52
aF2.094
aF3.429
aF4.167
aF2.98
aF0.712
aF5.264
aF3.23
aF8.151
aF6.483
aF4.731
aF1.155
aF5.852
aF4.755
aF8.935
aF6.083
aF3.962
aF5.834
aF2.6
aF9.295
aF6.033
aF6.339
aF7.395
aF6.012
aF10.129
aF4.187
aF2.71
aF4.756
asI28
(lp15
F9.418
aF5.636
aF8.591
aF6.824
aF3.795
aF5.017
aF5.574
aF3.62
aF6.838
aF5.932
aF2.683
aF7.779
aF7.069
aF3.98
aF2.746
aF5.649
aF5.42
aF3.029
aF9.078
aF4.893
aF9.807
aF5.786
aF3.395
aF9.355
aF2.424
aF3.893
aF9.568
aF4.118
aF6.176
aF4.765
aF3.212
aF6.226
asI31
(lp16
F10.459
aF5.161
aF7.085
aF6.128
aF6.076
aF4.498
aF8.805
aF8.146
aF6.998
aF5.836
aF4.505
aF4.39
aF7.615
aF9.372
aF2.72
aF1.969
aF8.353
aF2.688
aF3.305
aF3.336
aF7.584
aF4.487
aF4.211
aF5.399
aF8.224
aF3.587
aF9.391
aF4.854
asI33
(lp17
F3.573
aF4.599
aF6.565
aF2.351
aF4.206
aF3.505
aF3.537
aF11.084
aF5.007
aF4.467
aF3.644
aF3.843
aF6.127
aF8.016
aF6.537
aF6.456
aF3.2
aF3.648
aF4.437
aF3.322
aF2.754
aF1.923
aF4.321
aF10.242
aF3.095
aF4.339
aF11.629
aF3.519
aF4.31
aF5.457
aF2.494
aF4.669
aF6.704
asI35
(lp18
F3.377
aF4.72
aF4.261
aF3.854
aF3.5
aF10.685
aF7.58
aF3.828
aF4.906
aF4.986
aF7.638
aF5.589
aF5.837
aF6.15
aF5.943
aF6.607
aF3.638
aF3.296
aF6.646
aF3.73
aF3.977
aF6.24
aF4.384
aF5.463
aF5.066
aF2.806
aF1.66
aF3.748
aF3.583
aF3.623
aF3.401
aF7.206
asI37
(lp19
F7.388
aF4.441
aF6.322
aF7.749
aF7.972
aF6.076
aF2.862
aF7.045
aF10.32
aF7.155
aF9.186
aF10.316
aF11.951
aF7.545
aF13.415
aF7.426
aF11.079
aF1.687
aF4.261
aF5.277
aF9.407
aF5.141
aF2.999
aF1.957
aF2.168
aF3.317
aF5.343
aF9.89
aF4.316
asI39
(lp20
F9.177
aF5.463
aF3.888
aF4.641
aF7.106
aF7.937
aF4.664
aF3.373
aF8.467
aF3.459
aF5.736
aF5.108
aF7.753
aF3.597
aF5.112
aF4.109
aF7.379
aF8.761
aF4.435
aF3.978
aF4.642
aF3.734
aF3.776
aF3.624
asI41
(lp21
F5.128
aF2.422
aF7.174
aF1.965
aF3.62
aF1.988
aF7.946
aF1.914
aF4.098
aF3.627
aF7.366
aF5.83
aF10.158
aF3.624
aF3.429
aF8.32
aF2.718
aF1.372
aF1.563
aF6.787
aF4.565
aF8.905
aF8.865
aF4.926
aF7.644
aF3.469
aF3.87
aF1.642
aF5.392
aF2.773
aF4.844
aF5.602
asI44
(lp22
F4.467
aF3.314
aF3.409
aF2.029
aF6.26
aF4.968
aF4.175
aF6.272
aF5.425
aF3.33
aF2.505
aF6.694
aF5.869
aF2.671
aF10.346
aF7.416
aF9.62
aF5.166
aF4.785
aF1.835
aF3.694
aF6.149
aF6.9
aF11.051
aF6.248
aF5.82
aF9.09
aF3.568
aF3.838
aF2.456
aF2.157
aF4.253
aF5.201
aF3.083
aF5.802
aF5.9
asI47
(lp23
F10.642
aF5.712
aF5.679
aF4.585
aF7.205
aF4.493
aF5.417
aF3.499
aF5.596
aF4.387
aF6.038
aF4.694
aF5.508
aF3.616
aF7.14
aF9.1
aF9.223
aF5.231
aF8.401
aF5.082
aF3.689
aF0.978
aF7.842
aF4.476
aF3.786
aF4.974
aF2.075
aF8.785
aF5.2
aF4.515
aF6.537
aF6.997
aF3.759
aF4.127
aF3.405
asI48
(lp24
F4.561
aF4.912
aF5.561
aF3.252
aF6.308
aF4.178
aF8.964
aF12.294
aF2.893
aF8.595
aF7.04
aF13.759
aF7.252
aF5.181
aF7.041
aF2.683
aF4.273
aF3.427
aF1.988
aF4.145
aF5.988
aF9.119
aF2.626
aF8.67
aF1.759
aF6.921
aF4.189
aF7.323
aF4.868
aF6.151
aF6.238
asI49
(lp25
F6.612
aF9.133
aF8.948
aF3.649
aF4.296
aF2.565
aF9.125
aF4.045
aF7.837
aF11.194
aF4.974
aF4.278
aF9.477
aF5.368
aF5.336
aF6.758
aF6.989
aF6.073
aF1.761
aF2.976
aF3.444
aF5.542
aF3.934
aF6.229
aF4.71
aF5.867
aF7.846
aF7.436
aF6.465
aF8.818
aF4.816
aF5.141
aF5.341
aF5.037
asI51
(lp26
F2.41
aF1.732
aF8.339
aF8.352
aF4.135
aF1.895
aF0.949
aF5.985
aF3.488
aF1.874
aF3.726
aF3.409
aF7.911
aF2.947
aF1.865
aF6.462
aF2.977
aF4.344
aF3.388
aF6.117
aF4.953
aF3.778
aF4.268
aF3.124
aF5.818
aF3.537
aF3.49
aF7.222
aF3.542
aF0.994
aF7.053
aF5.499
aF3.749
aF14.839
aF4.098
aF6.403
aF3.314
aF3.595
aF3.889
asI53
(lp27
F4.091
aF8.076
aF6.105
aF7.072
aF4.291
aF4.17
aF9.004
aF5.246
aF3.91
aF5.328
aF5.276
aF5.698
aF1.532
aF4.281
aF2.4
aF7.055
aF3.849
aF2.85
aF3.468
aF6.629
aF4.696
aF3.877
aF3.273
aF5.41
aF4.095
aF5.933
aF6.218
aF3.923
aF7.281
aF5.012
aF2.818
aF1.325
aF10.289
aF4.738
aF6.881
aF7.996
aF4.157
aF7.737
aF3.694
aF9.108
aF6.829
aF2.09
asI55
(lp28
F4.45
aF5.014
aF4.066
aF6.455
aF8.975
aF10.279
aF2.62
aF11.455
aF3.372
aF10.447
aF3.782
aF7.471
aF5.279
aF7.519
aF3.524
aF6.746
aF4.372
aF8.067
aF6.744
aF6.934
aF10.171
aF3.663
aF1.904
aF5.58
aF3.306
aF6.979
aF3.286
aF7.762
aF8.474
aF8.706
aF2.699
aF5.887
aF2.248
aF2.752
aF5.619
aF5.172
aF8.69
aF3.604
aF2.405
aF2.922
asI57
(lp29
F5.632
aF4.951
aF4.548
aF8.547
aF6.018
aF8.427
aF4.21
aF2.695
aF6.708
aF5.728
aF4.492
aF4.791
aF3.68
aF9.615
aF3.994
aF4.63
aF4.326
aF8.785
aF4.984
aF4.324
aF18.356
aF6.904
aF6.67
aF5.886
aF5.817
aF5.892
aF2.53
aF12.284
aF5.0
aF7.143
aF2.416
aF8.017
aF4.508
aF7.308
aF8.518
aF4.567
aF4.88
aF9.538
aF5.203
aF8.126
aF0.942
aF5.22
aF10.631
asI59
(lp30
F6.043
aF4.58
aF3.413
aF3.495
aF3.982
aF4.212
aF9.462
aF4.149
aF6.073
aF4.873
aF6.878
aF3.603
aF4.728
aF4.802
aF2.972
aF8.346
aF8.898
aF7.202
aF6.676
aF3.053
aF2.094
aF7.867
aF5.285
aF2.095
aF13.159
aF5.97
aF2.88
aF5.181
aF3.55
aF5.628
aF4.384
aF5.137
aF1.864
aF2.591
aF4.676
aF8.922
aF4.486
aF9.707
aF5.907
aF1.11
aF6.88
aF5.851
aF3.198
asI61
(lp31
F2.15
aF6.356
aF4.615
aF7.103
aF6.401
aF2.85
aF5.447
aF5.418
aF7.359
aF9.701
aF2.181
aF8.671
aF4.153
aF8.518
aF3.88
aF7.149
aF6.021
aF3.156
aF5.043
aF6.319
aF2.886
aF2.085
aF4.699
aF9.17
aF3.964
aF4.209
aF10.888
aF6.941
aF4.848
aF6.895
aF7.271
aF8.859
aF2.111
aF1.764
aF6.55
aF6.054
aF4.038
aF5.129
aF3.794
aF1.858
aF3.314
aF4.397
aF5.004
aF10.592
aF5.195
aF9.6
aF5.971
aF6.116
aF8.062
aF5.703
asI63
(lp32
F8.841
aF3.867
aF4.006
aF5.944
aF11.422
aF2.684
aF7.207
aF4.292
aF6.251
aF2.881
aF4.333
aF8.122
aF4.583
aF6.583
aF5.802
aF7.523
aF5.495
aF7.195
aF8.336
aF3.894
aF6.604
aF10.009
aF6.589
aF6.502
aF5.463
aF4.336
aF9.739
aF7.977
aF6.979
aF6.152
aF2.962
aF9.244
aF5.05
aF6.599
aF8.725
aF6.192
aF4.439
aF7.713
aF8.497
aF12.05
aF4.812
aF5.369
asI65
(lp33
F8.746
aF5.871
aF6.11
aF10.727
aF8.548
aF5.662
aF9.609
aF6.056
aF3.774
aF7.887
aF6.225
aF4.092
aF4.141
aF5.052
aF9.153
aF9.51
aF6.805
aF4.655
aF3.917
aF8.138
aF9.701
aF2.129
aF7.553
aF7.463
aF7.032
aF7.863
aF4.76
aF3.947
aF5.909
aF7.914
aF14.623
aF8.358
aF9.266
aF9.907
aF5.0
aF7.372
aF11.245
aF7.77
aF5.323
aF10.955
aF4.845
aF4.536
aF10.169
aF7.692
aF4.983
aF4.537
aF9.022
aF10.176
aF4.523
aF7.807
aF4.835
aF5.375
aF3.401
aF6.032
aF10.843
asI70
(lp34
F7.089
aF2.741
aF8.688
aF2.901
aF1.326
aF8.149
aF2.829
aF5.284
aF9.554
aF1.184
aF3.495
aF5.998
aF1.133
aF7.068
aF7.385
aF2.886
aF5.222
aF11.173
aF6.616
aF8.052
aF12.21
aF7.005
aF11.51
aF2.948
aF6.113
aF6.244
aF6.139
aF7.934
aF6.948
aF7.831
aF6.591
aF9.552
aF5.231
aF4.451
aF11.514
aF6.526
aF8.482
aF12.341
aF2.917
aF5.184
aF6.535
aF7.416
aF3.622
aF3.8
aF4.715
aF8.918
aF8.51
aF12.711
aF4.297
aF6.896
aF6.589
asI71
(lp35
F6.097
aF8.13
aF8.765
aF6.797
aF8.823
aF5.22
aF8.148
aF5.035
aF5.052
aF1.673
aF1.721
aF3.697
aF6.899
aF10.941
aF2.902
aF5.397
aF4.281
aF2.58
aF4.413
aF4.256
aF6.838
aF11.639
aF6.302
aF12.357
aF10.32
aF3.128
aF1.666
aF4.746
aF2.65
aF5.592
aF3.474
aF2.692
aF1.998
aF0.83
aF4.321
aF2.965
aF2.661
aF4.254
aF2.836
aF5.004
aF5.21
aF3.018
aF3.939
aF11.913
aF7.34
aF4.239
aF1.967
aF6.117
aF2.657
aF4.348
aF5.167
aF2.281
aF6.37
aF5.122
aF3.425
aF6.662
aF4.141
aF3.282
aF9.556
aF5.152
aF7.647
aF6.278
aF3.511
aF5.346
aF4.296
aF6.907
aF7.987
aF2.538
aF4.537
aF7.695
aF10.434
aF2.681
aF3.311
aF2.862
aF3.961
aF3.317
aF6.323
aF6.082
aF4.637
aF3.551
aF3.672
aF8.426
aF5.194
asI72
(lp36
F6.579
aF1.383
aF5.006
aF6.966
aF2.912
aF1.22
aF6.531
aF3.706
aF3.989
aF13.483
aF1.792
aF3.563
aF5.391
aF7.038
aF4.204
aF1.919
aF1.045
aF5.152
aF4.403
aF11.145
aF5.142
aF7.392
aF8.359
aF5.745
aF1.995
aF4.243
aF8.151
aF4.087
aF6.599
aF5.929
aF5.171
aF8.225
aF5.145
aF2.463
aF7.992
aF1.504
aF2.143
aF2.868
aF3.612
aF4.436
aF10.131
aF4.233
aF4.965
aF7.848
aF2.011
aF6.838
aF7.022
aF5.692
aF3.428
aF5.95
aF0.969
aF2.179
aF7.458
aF7.885
aF1.992
aF6.735
aF5.312
aF5.419
aF8.244
aF2.475
aF3.729
aF4.111
aF8.817
aF4.662
aF5.337
aF3.975
aF5.029
aF8.483
aF7.055
asI73
(lp37
F4.083
aF6.969
aF5.598
aF2.464
aF3.627
aF11.533
aF3.678
aF7.831
aF11.591
aF2.071
aF1.92
aF2.769
aF1.796
aF6.251
aF0.964
aF6.899
aF5.313
aF5.142
aF1.8
aF2.469
aF1.82
aF3.748
aF1.753
aF3.278
aF4.19
aF9.472
aF1.821
aF5.132
aF1.835
aF1.469
aF3.379
aF2.466
aF4.461
aF4.018
aF5.548
aF1.728
aF6.685
aF3.35
aF9.89
aF6.228
aF1.992
aF2.022
aF5.919
aF1.813
aF7.053
aF0.769
aF2.365
aF6.007
aF7.168
aF10.009
aF6.172
aF2.822
aF4.373
aF3.405
aF5.038
aF7.528
aF3.626
aF5.355
aF5.204
aF2.019
aF4.253
aF5.663
aF4.666
asI79
(lp38
F2.783
aF7.036
aF1.08
aF2.383
aF6.006
aF2.637
aF6.413
aF5.458
aF5.154
aF4.935
aF4.857
aF5.948
aF3.171
aF4.858
aF2.763
aF0.746
aF4.014
aF5.072
aF2.592
aF12.766
aF12.173
aF8.036
aF4.137
aF6.461
aF11.825
aF1.387
aF1.081
aF7.761
aF8.558
aF4.291
aF7.237
aF5.383
aF5.272
aF5.404
aF6.811
aF5.348
aF6.293
aF9.662
aF6.128
aF2.807
aF4.553
aF4.405
aF9.244
aF8.939
asI80
(lp39
F6.799
aF3.836
aF10.898
aF4.177
aF3.019
aF7.272
aF5.45
aF5.382
aF9.553
aF5.012
aF11.437
aF8.447
aF2.033
aF8.952
aF3.023
aF5.601
aF2.102
aF3.302
aF5.421
aF3.742
aF8.875
aF7.196
aF4.499
aF5.04
aF10.38
aF8.683
aF5.029
aF5.455
aF6.205
aF2.738
aF5.088
aF3.624
aF6.29
aF7.607
aF6.496
aF1.578
aF7.119
aF4.564
aF6.293
asI81
(lp40
F2.021
aF0.9
aF2.197
aF8.917
aF3.205
aF4.283
aF4.293
aF3.77
aF5.282
aF1.637
aF5.745
aF2.983
aF3.792
aF2.656
aF4.468
aF7.169
aF4.123
aF3.387
aF3.527
aF7.326
aF4.942
aF7.572
aF2.277
aF5.488
aF5.113
aF7.773
aF7.845
aF7.948
aF1.79
aF6.883
aF10.717
aF8.63
aF3.726
aF5.649
aF3.02
aF5.781
aF5.317
aF3.462
aF7.234
aF10.06
aF6.012
aF4.728
aF6.533
aF3.56
aF4.288
aF3.849
asI82
(lp41
F5.447
aF5.885
aF5.053
aF6.183
aF8.088
aF4.481
aF4.344
aF2.83
aF8.867
aF1.76
aF3.973
aF5.508
aF5.485
aF4.896
aF2.202
aF5.401
aF2.612
aF3.59
aF3.692
aF3.485
aF4.873
aF3.44
aF5.2
aF5.733
aF9.465
aF2.108
aF7.014
aF2.987
aF2.057
aF6.066
aF6.343
aF2.737
aF11.347
aF4.457
aF4.083
aF2.933
aF4.783
aF2.799
asI87
(lp42
F3.595
aF4.882
aF3.854
aF6.014
aF5.253
aF7.934
aF9.375
aF9.04
aF3.357
aF6.783
aF4.359
aF5.413
aF6.789
aF8.328
aF4.118
aF7.594
aF1.87
aF7.861
aF3.631
aF10.158
aF9.705
aF4.652
aF6.388
aF3.113
aF4.349
aF1.924
aF6.082
aF6.228
aF4.466
aF5.176
aF4.532
aF6.395
aF5.206
aF11.043
aF8.69
aF3.797
aF3.416
aF4.438
aF1.928
aF4.496
aF5.063
aF3.163
aF5.227
asI88
(lp43
F4.365
aF5.513
aF4.575
aF3.646
aF11.143
aF6.978
aF3.903
aF2.727
aF5.464
aF7.75
aF10.18
aF5.571
aF3.624
aF2.099
aF7.244
aF1.857
aF9.494
aF4.547
aF3.148
aF3.055
aF5.538
aF7.601
aF6.475
aF3.429
aF3.401
aF3.673
aF5.988
aF4.848
aF5.621
aF2.863
aF4.513
aF7.659
aF6.074
aF3.691
aF4.657
aF7.397
aF5.46
aF2.74
aF11.629
aF3.997
asI89
(lp44
F13.277
aF9.463
aF5.06
aF3.253
aF7.178
aF5.165
aF3.411
aF7.782
aF9.592
aF6.632
aF7.833
aF4.529
aF7.135
aF4.025
aF5.338
aF5.355
aF6.577
aF4.366
aF10.048
aF6.971
aF6.244
aF6.882
aF6.691
aF1.924
aF7.121
aF8.797
aF12.266
aF3.913
aF5.854
aF6.455
aF3.504
aF6.775
aF4.504
aF5.223
aF6.331
aF1.748
aF9.701
aF4.831
aF5.968
aF6.691
aF6.657
aF7.284
aF10.829
aF7.643
aF11.035
asI90
(lp45
F7.592
aF9.193
aF6.514
aF4.839
aF2.97
aF8.732
aF12.504
aF5.589
aF6.127
aF4.039
aF9.48
aF7.81
aF5.325
aF9.551
aF6.823
aF5.64
aF5.162
aF3.822
aF16.501
aF4.289
aF3.752
aF3.75
aF7.406
aF8.66
aF3.196
aF5.609
aF6.497
aF8.73
aF10.113
aF8.517
aF4.982
aF9.816
aF7.427
aF10.624
aF6.12
aF8.662
aF6.188
aF9.935
aF6.171
aF5.742
asI95
(lp46
F6.194
aF4.324
aF7.253
aF5.923
aF7.127
aF9.106
aF5.96
aF4.709
aF13.49
aF2.021
aF7.165
aF4.994
aF4.781
aF7.088
aF8.465
aF1.254
aF5.97
aF9.233
aF4.771
aF4.819
aF6.229
aF3.354
aF6.279
aF6.294
aF3.618
aF7.328
aF5.884
aF9.361
aF4.695
aF8.809
aF6.139
aF5.869
aF9.614
aF8.199
aF5.343
aF3.188
aF5.402
aF1.823
aF3.663
aF7.287
aF7.479
aF4.579
aF0.275
aF4.163
aF3.779
aF7.063
aF3.957
asI96
(lp47
F3.086
aF1.996
aF0.432
aF7.12
aF5.292
aF5.372
aF4.352
aF2.012
aF4.173
aF7.957
aF9.844
aF6.671
aF7.609
aF15.721
aF7.261
aF11.146
aF6.806
aF4.711
aF7.342
aF10.34
aF12.13
aF4.198
aF5.097
aF5.238
aF5.923
aF5.954
aF6.18
aF4.275
aF4.515
aF5.047
aF12.582
aF3.158
aF8.681
aF3.699
aF4.326
aF5.221
aF5.334
aF9.837
aF7.472
aF2.76
aF3.79
aF8.782
aF6.692
asI97
(lp48
F5.853
aF11.656
aF4.686
aF5.232
aF5.203
aF4.83
aF8.763
aF3.742
aF4.4
aF7.405
aF5.109
aF7.885
aF3.479
aF3.298
aF2.189
aF2.71
aF9.521
aF3.108
aF2.904
aF3.371
aF4.191
aF4.587
aF8.997
aF5.927
aF6.889
aF9.119
aF8.325
aF6.761
aF7.04
aF5.367
aF6.087
aF6.518
aF2.546
aF6.098
aF6.591
aF6.806
aF7.145
aF13.751
asI98
(lp49
F5.007
aF5.08
aF5.049
aF6.737
aF7.686
aF1.638
aF4.474
aF3.919
aF4.464
aF7.929
aF5.225
aF6.118
aF3.646
aF1.827
aF6.921
aF3.813
aF2.156
aF8.175
aF5.765
aF1.598
aF4.729
aF6.506
aF9.098
aF3.307
aF7.565
aF7.847
aF5.798
aF3.529
aF4.671
aF7.937
aF3.901
aF7.999
aF4.295
aF11.822
aF13.067
aF9.921
aF4.292
aF11.079
aF10.306
aF1.814
aF4.892
aF7.268
aF17.807
aF9.622
aF5.295
asI102
(lp50
F5.979
aF8.575
aF3.968
aF10.338
aF5.645
aF3.467
aF2.988
aF4.151
aF1.628
aF5.134
aF3.449
aF5.141
aF4.875
aF9.085
aF3.34
aF3.633
aF4.173
aF3.464
aF7.544
aF5.904
aF2.792
aF4.63
aF4.213
aF2.777
aF3.381
aF2.556
aF5.983
aF6.321
aF5.131
aF4.11
aF2.942
aF6.959
aF9.935
aF5.359
aF15.116
aF4.482
aF7.462
aF5.393
aF5.02
aF3.028
aF2.924
aF4.912
aF2.087
aF5.092
aF6.047
aF5.281
aF4.39
aF11.146
aF3.488
aF4.163
aF4.16
aF3.091
aF8.778
aF3.574
aF2.074
aF2.871
aF1.004
aF2.309
aF9.503
aF6.452
aF4.295
asI104
(lp51
F5.236
aF3.55
aF6.588
aF2.669
aF4.526
aF2.96
aF2.837
aF9.643
aF2.705
aF6.202
aF8.185
aF8.016
aF4.55
aF3.855
aF5.651
aF2.423
aF7.436
aF3.864
aF1.756
aF1.575
aF3.884
aF4.346
aF5.175
aF4.08
aF6.115
aF6.93
aF2.615
aF4.935
aF0.548
aF2.71
aF2.701
aF12.003
aF5.828
aF4.723
aF3.285
aF4.335
aF2.928
aF4.951
aF7.547
aF6.939
aF4.545
aF5.559
aF5.957
aF6.977
aF3.798
aF2.67
aF6.192
aF4.902
aF4.434
aF7.543
aF8.124
aF3.653
aF7.524
aF9.589
aF4.243
aF1.51
aF2.665
aF4.547
aF2.703
aF3.896
aF2.715
aF3.512
aF8.948
aF1.752
aF3.289
asI105
(lp52
F1.909
aF4.092
aF4.92
aF2.847
aF7.365
aF4.556
aF6.81
aF5.578
aF3.343
aF3.919
aF6.759
aF2.416
aF5.43
aF2.508
aF2.595
aF1.947
aF4.815
aF1.739
aF3.986
aF2.115
aF3.398
aF4.373
aF2.669
aF4.213
aF1.962
aF2.561
aF1.783
aF4.333
aF1.912
aF5.894
aF6.947
aF6.35
aF3.474
aF3.6
aF6.254
aF2.75
aF5.308
aF2.652
aF3.478
aF2.757
aF4.089
aF4.085
aF4.574
aF2.672
aF1.071
aF1.779
aF6.923
aF2.91
aF5.86
aF5.722
aF4.385
aF2.79
aF5.545
aF2.72
aF8.655
aF5.665
aF4.453
aF8.089
aF2.555
aF3.135
asI106
(lp53
F3.771
aF5.568
aF6.608
aF2.818
aF4.528
aF6.576
aF7.386
aF2.612
aF7.526
aF5.486
aF1.237
aF6.195
aF2.217
aF0.961
aF3.519
aF4.178
aF2.561
aF2.357
aF10.021
aF1.88
aF2.95
aF2.9
aF1.889
aF6.274
aF3.588
aF1.885
aF3.283
aF0.987
aF1.774
aF3.906
aF1.353
aF13.441
aF3.394
aF3.681
aF9.731
aF8.406
aF9.509
aF5.57
aF7.024
aF1.746
aF10.463
aF2.799
aF2.898
aF3.517
aF3.529
aF4.41
aF5.188
aF2.674
aF4.332
aF7.042
aF6.552
aF3.601
aF3.962
aF6.195
aF5.966
aF3.841
aF3.084
asI111
(lp54
F4.584
aF3.101
aF3.428
aF5.364
aF6.966
aF5.335
aF2.551
aF8.784
aF3.049
aF2.826
aF10.016
aF10.325
aF2.854
aF4.245
aF2.088
aF4.761
aF5.17
aF2.806
aF6.6
aF2.422
aF4.251
aF6.376
aF7.791
aF7.546
aF4.536
aF1.197
aF2.736
aF3.53
aF7.533
aF2.021
aF2.884
aF5.027
aF5.383
aF3.348
aF3.279
aF6.794
aF2.667
aF4.389
aF4.944
aF6.73
aF4.509
aF4.893
aF2.825
aF3.334
aF4.679
aF6.014
aF9.313
aF4.708
aF8.17
aF6.501
aF4.239
aF4.706
aF4.389
aF7.243
aF2.851
aF4.051
aF3.648
aF8.378
aF8.035
aF2.016
aF1.689
aF10.028
aF6.233
asI112
(lp55
F3.891
aF3.103
aF1.805
aF3.212
aF2.939
aF3.494
aF2.839
aF4.305
aF4.699
aF10.0
aF5.008
aF4.764
aF3.023
aF5.194
aF3.069
aF3.438
aF2.682
aF4.671
aF1.832
aF3.073
aF2.009
aF3.32
aF2.883
aF2.226
aF4.147
aF5.327
aF6.002
aF7.412
aF4.898
aF4.818
aF7.545
aF5.99
aF6.788
aF6.511
aF2.432
aF3.912
aF2.744
aF7.381
aF1.884
aF1.979
aF2.662
aF3.037
aF2.687
aF6.068
aF1.028
aF2.133
aF0.465
aF3.613
aF1.741
aF5.158
aF1.637
aF3.516
aF3.307
aF4.913
aF6.032
aF7.215
aF9.826
aF4.93
asI113
(lp56
F9.589
aF14.746
aF11.449
aF3.032
aF4.904
aF4.282
aF3.517
aF3.279
aF3.155
aF3.186
aF3.19
aF1.746
aF1.574
aF5.937
aF5.185
aF1.639
aF3.327
aF3.144
aF6.358
aF5.295
aF7.577
aF4.957
aF5.205
aF6.141
aF4.183
aF8.703
aF1.957
aF6.884
aF2.648
aF5.897
aF1.921
aF7.999
aF1.669
aF5.828
aF2.567
aF3.906
aF5.959
aF5.286
aF4.723
aF1.819
aF3.808
aF3.698
aF1.474
aF3.641
aF4.658
aF2.135
aF2.637
aF6.92
aF5.728
aF4.109
aF4.853
aF4.347
aF6.065
aF6.245
aF6.177
aF3.277
aF3.103
aF9.339
aF6.022
aF8.244
aF5.678
asI114
(lp57
F4.139
aF3.281
aF0.921
aF1.833
aF5.544
aF3.365
aF2.413
aF3.465
aF0.467
aF3.372
aF7.033
aF3.779
aF5.681
aF3.982
aF5.653
aF9.217
aF6.096
aF12.303
aF11.014
aF4.266
aF5.059
aF1.977
aF6.943
aF3.611
aF3.778
aF7.288
aF1.773
aF4.35
aF5.816
aF2.646
aF1.851
aF2.791
aF1.66
aF4.997
aF1.649
aF1.949
aF3.576
aF1.961
aF5.176
aF3.998
aF3.993
aF1.205
aF3.892
aF4.938
aF5.624
aF3.705
aF4.469
aF4.273
aF2.648
aF8.943
aF3.677
aF1.857
aF4.607
aF3.403
aF1.11
aF3.834
aF5.063
aF1.703
aF4.857
aF2.9
aF3.569
aF7.157
aF6.052
asI118
(lp58
F6.262
aF8.84
aF10.063
aF6.076
aF3.917
aF3.039
aF7.065
aF2.82
aF8.114
aF4.826
aF3.926
aF6.249
aF2.494
aF3.839
aF9.805
aF3.019
aF5.943
aF4.369
aF6.739
aF2.797
aF5.303
aF4.166
aF7.492
aF1.648
aF4.843
aF3.801
aF1.282
aF5.818
aF5.584
aF4.821
aF4.054
aF8.877
aF6.76
aF6.267
aF9.557
aF3.565
aF4.596
aF8.272
aF3.907
aF5.932
aF4.586
aF3.814
aF2.478
aF2.841
aF2.79
aF7.177
aF3.446
aF2.664
aF2.092
aF3.358
aF3.311
aF9.584
aF9.206
aF3.756
aF7.825
aF3.648
aF1.915
aF12.064
aF8.655
aF1.078
aF4.412
aF4.541
aF2.188
aF1.919
aF4.278
aF0.266
aF6.118
aF2.518
asI119
(lp59
F3.238
aF3.64
aF2.629
aF4.196
aF4.361
aF3.386
aF0.928
aF1.769
aF1.777
aF3.31
aF2.719
aF3.132
aF3.405
aF1.353
aF1.791
aF7.179
aF1.922
aF2.014
aF4.202
aF2.718
aF3.677
aF5.484
aF13.02
aF6.42
aF4.388
aF1.347
aF0.978
aF4.266
aF7.612
aF10.064
aF3.954
aF3.896
aF4.512
aF0.817
aF1.866
aF2.899
aF4.922
aF7.277
aF4.082
aF2.216
aF4.307
aF1.855
aF1.207
aF6.126
aF2.851
aF2.845
aF2.54
aF4.732
aF0.115
aF1.655
aF5.037
aF3.558
aF4.039
aF2.118
aF7.511
aF2.63
aF3.745
aF6.027
aF3.373
aF2.474
aF7.58
aF2.719
aF7.808
aF2.004
aF7.394
aF3.53
aF6.292
aF14.347
aF1.793
aF4.648
aF7.936
aF9.524
aF8.511
aF4.592
aF4.427
aF1.99
aF4.043
aF3.657
aF7.087
aF5.104
aF2.294
aF10.133
aF1.718
aF4.475
aF2.683
aF3.428
aF2.75
aF7.836
aF0.211
aF3.453
aF3.362
aF2.515
aF5.719
asI120
(lp60
F4.609
aF6.108
aF4.564
aF4.628
aF5.364
aF2.702
aF4.897
aF1.545
aF4.401
aF5.286
aF5.59
aF1.777
aF3.269
aF6.08
aF2.582
aF6.876
aF3.05
aF6.445
aF6.387
aF3.373
aF2.478
aF5.102
aF3.977
aF1.259
aF4.15
aF4.799
aF8.07
aF7.583
aF6.639
aF6.244
aF3.851
aF9.753
aF7.33
aF11.396
aF2.557
aF6.433
aF9.139
aF10.034
aF5.564
aF7.065
aF3.917
aF1.002
aF1.298
aF7.812
aF1.062
aF4.494
aF1.195
aF3.174
aF2.806
aF6.535
aF3.61
aF1.202
aF3.908
aF2.418
aF0.854
aF1.396
aF3.673
aF7.202
aF5.662
aF2.752
aF5.384
aF5.395
aF7.494
aF10.832
aF2.768
aF9.082
aF4.883
aF0.95
aF5.817
aF5.501
aF5.52
aF2.932
asI125
(lp61
F3.677
aF2.675
aF4.357
aF4.789
aF3.959
aF6.621
aF10.129
aF6.353
aF2.35
aF3.972
aF10.718
aF6.237
aF6.485
aF0.248
aF2.384
aF1.813
aF2.04
aF4.059
aF4.273
aF1.853
aF5.234
aF1.924
aF2.68
aF5.88
aF3.195
aF2.428
aF1.327
aF4.906
aF3.162
aF6.034
aF5.819
aF1.106
aF9.064
aF5.845
aF5.764
aF6.052
aF3.664
aF9.937
aF8.689
aF3.397
aF4.614
aF2.338
aF1.972
aF4.94
aF7.017
aF9.356
aF3.451
aF9.602
aF2.774
aF5.806
aF4.525
aF6.78
aF6.09
aF2.169
aF3.568
aF2.639
asI126
(lp62
F4.128
aF5.648
aF4.598
aF2.045
aF2.433
aF11.213
aF2.827
aF4.906
aF3.46
aF7.271
aF4.812
aF1.57
aF7.758
aF7.065
aF5.576
aF4.093
aF6.347
aF5.297
aF5.513
aF6.218
aF2.968
aF4.336
aF3.479
aF4.441
aF3.531
aF4.788
aF3.661
aF3.467
aF2.827
aF3.386
aF5.309
aF3.657
aF2.34
aF3.48
aF5.51
aF2.227
aF9.033
aF6.232
aF2.554
aF3.632
aF5.796
aF3.38
aF7.795
aF4.508
aF3.638
aF4.947
aF2.897
aF4.201
aF2.588
aF5.776
aF4.458
aF2.224
aF2.347
aF0.997
aF3.244
aF7.168
aF6.038
aF3.315
aF1.534
aF5.341
aF8.479
aF2.16
aF4.919
aF3.285
asI127
(lp63
F9.934
aF8.451
aF5.742
aF10.762
aF5.793
aF5.34
aF4.409
aF6.03
aF7.592
aF8.515
aF3.457
aF4.882
aF12.549
aF4.587
aF4.824
aF2.996
aF5.364
aF5.118
aF1.191
aF9.543
aF1.783
aF4.326
aF6.458
aF2.436
aF8.998
aF3.924
aF4.599
aF2.028
aF7.842
aF5.639
aF0.092
aF4.742
aF5.24
aF3.479
aF2.812
aF4.821
aF4.357
aF3.402
aF2.879
aF2.31
aF2.888
aF4.422
aF7.802
aF7.958
aF7.383
aF8.856
aF4.163
aF4.452
aF4.138
aF5.637
aF5.308
aF5.933
aF5.839
aF5.052
aF5.167
aF1.663
aF4.502
aF2.485
aF3.409
aF3.415
aF8.016
aF2.162
aF4.283
aF4.153
asI128
(lp64
F6.263
aF8.109
aF3.697
aF4.429
aF2.563
aF2.85
aF2.886
aF1.981
aF4.071
aF6.581
aF2.914
aF6.212
aF5.401
aF3.624
aF3.647
aF2.782
aF3.92
aF2.7
aF4.287
aF3.515
aF1.842
aF3.51
aF3.828
aF1.738
aF1.263
aF1.701
aF6.476
aF7.345
aF9.225
aF1.644
aF3.35
aF4.466
aF8.582
aF6.224
aF6.138
aF3.332
aF5.962
aF4.284
aF7.02
aF3.878
aF8.265
aF5.037
aF3.4
aF3.45
aF4.522
aF4.583
aF2.638
aF4.197
aF4.796
aF4.931
aF2.519
aF6.916
aF7.537
aF2.683
aF2.879
aF1.342
aF8.33
aF2.726
aF1.789
aF2.494
aF4.075
aF6.101
aF3.237
asI131
(lp65
F0.674
aF1.324
aF1.871
aF9.563
aF0.952
aF0.994
aF2.706
aF4.345
aF2.815
aF3.482
aF3.85
aF0.852
aF1.544
aF1.547
aF4.219
aF2.516
aF1.864
aF4.942
aF4.194
aF3.844
aF1.79
aF3.787
aF2.791
aF7.499
aF1.162
aF7.569
aF3.397
aF1.144
aF3.974
aF5.066
aF3.854
aF5.542
aF6.96
aF1.879
aF2.228
aF4.547
aF4.408
aF1.947
aF2.759
aF3.783
aF3.889
aF1.956
aF2.041
aF1.245
aF4.258
aF4.613
aF3.45
aF5.636
aF7.655
aF5.726
aF5.953
aF0.38
aF3.94
aF2.735
aF2.741
aF2.414
aF2.749
aF1.793
aF1.512
aF0.526
aF2.674
aF1.16
aF1.432
aF1.011
aF2.385
aF6.553
aF3.892
aF5.0
aF4.387
aF2.72
aF4.118
aF3.542
aF2.716
aF0.974
aF2.639
aF5.878
aF5.81
aF2.545
aF1.436
aF4.517
aF3.351
aF1.091
aF4.579
aF3.811
aF3.684
aF3.676
aF1.869
aF5.896
aF3.543
aF6.541
asI132
(lp66
F3.399
aF1.316
aF2.588
aF1.445
aF6.901
aF4.082
aF4.946
aF2.883
aF3.645
aF1.93
aF7.35
aF2.025
aF5.616
aF9.446
aF1.005
aF4.341
aF4.857
aF2.881
aF3.495
aF1.596
aF2.49
aF2.554
aF5.448
aF1.807
aF2.719
aF5.14
aF0.898
aF6.014
aF4.95
aF5.129
aF3.279
aF6.963
aF8.544
aF6.221
aF2.088
aF6.888
aF1.638
aF4.23
aF1.643
aF2.982
aF4.737
aF5.069
aF2.66
aF4.097
aF4.336
aF4.46
aF3.777
aF3.224
aF8.315
aF4.065
aF10.842
aF4.381
aF7.593
aF3.793
aF5.866
aF7.136
aF13.182
aF2.536
aF1.779
aF3.307
aF3.713
aF7.09
aF2.316
aF5.034
aF2.933
aF9.094
aF6.034
aF4.095
aF5.158
aF3.468
aF10.702
aF3.242
aF2.718
aF4.04
aF3.832
aF2.838
aF2.37
aF4.468
aF1.809
aF3.282
asI136
(lp67
F3.29
aF5.416
aF6.517
aF6.143
aF7.998
aF8.966
aF3.6
aF2.585
aF3.372
aF4.395
aF2.278
aF2.633
aF1.882
aF2.268
aF1.9
aF6.714
aF4.344
aF2.75
aF4.11
aF2.908
aF3.385
aF5.539
aF3.236
aF0.274
aF4.534
aF4.403
aF4.41
aF4.559
aF0.896
aF6.037
aF1.943
aF6.268
aF4.45
aF3.729
aF6.031
aF2.851
aF8.009
aF0.967
aF2.688
aF4.343
aF3.958
aF2.711
aF2.741
aF1.051
aF3.502
aF11.074
aF9.653
aF10.631
aF12.187
aF3.246
aF6.358
aF8.04
aF4.356
aF5.528
aF2.681
aF4.515
aF2.76
aF3.926
aF4.819
aF3.993
aF4.183
aF5.599
aF1.346
aF4.173
aF6.136
aF3.497
aF4.307
aF3.357
asI137
(lp68
F5.702
aF4.27
aF3.685
aF3.351
aF3.148
aF0.252
aF3.767
aF1.882
aF3.503
aF8.55
aF2.848
aF3.363
aF3.673
aF6.49
aF5.459
aF3.547
aF5.702
aF4.27
aF5.195
aF3.351
aF3.148
aF0.252
aF3.767
aF5.385
aF4.801
aF5.267
aF6.465
aF4.471
aF4.52
aF5.092
aF3.62
aF0.988
aF12.466
aF5.891
aF6.302
aF9.635
aF3.95
aF3.23
aF10.43
aF0.995
aF6.074
aF2.629
aF4.829
aF5.233
aF11.156
aF7.94
aF2.669
aF3.859
aF2.06
aF4.591
aF5.579
aF2.487
aF2.767
aF6.005
aF5.166
aF1.732
aF2.258
aF10.081
aF2.961
aF1.196
aF5.775
aF4.385
aF6.558
aF0.723
aF1.164
aF3.92
aF3.183
aF4.764
asI138
(lp69
F4.852
aF1.045
aF2.601
aF3.173
aF4.544
aF2.449
aF1.929
aF5.382
aF4.826
aF3.363
aF5.709
aF2.839
aF4.097
aF3.019
aF6.451
aF3.785
aF7.098
aF5.175
aF6.744
aF8.442
aF1.613
aF5.525
aF2.65
aF5.123
aF2.815
aF3.317
aF1.913
aF3.979
aF2.684
aF2.558
aF1.65
aF5.82
aF5.064
aF2.736
aF2.155
aF5.083
aF2.906
aF4.823
aF5.911
aF9.705
aF9.85
aF3.427
aF2.588
aF2.557
aF4.267
aF4.849
aF2.459
aF1.746
aF4.661
aF2.466
aF2.722
aF0.966
aF4.224
aF1.287
aF3.096
aF3.727
aF1.909
aF4.798
aF5.122
aF2.607
aF0.314
aF0.364
aF4.845
aF12.311
aF4.688
aF2.701
aF1.147
aF5.69
aF4.31
aF3.745
aF2.664
aF4.227
aF3.312
aF2.49
aF6.0
aF5.596
aF4.327
aF4.307
aF2.826
aF1.528
aF1.952
aF5.743
aF3.898
asI141
(lp70
F2.626
aF4.873
aF1.71
aF5.932
aF4.964
aF5.634
aF4.036
aF0.302
aF6.495
aF1.455
aF3.478
aF5.055
aF5.708
aF5.777
aF6.547
aF4.808
aF2.773
aF5.867
aF2.544
aF1.121
aF4.496
aF0.067
aF5.297
aF6.855
aF10.114
aF3.966
aF2.51
aF3.056
aF3.204
aF2.505
aF3.256
aF5.699
aF3.837
aF10.733
aF3.101
aF1.121
aF4.284
aF2.86
aF1.119
aF6.718
aF4.342
aF5.019
aF2.189
aF2.656
aF1.771
aF2.695
aF1.911
aF3.746
aF2.582
aF1.078
aF9.343
aF7.966
aF3.369
aF5.793
aF3.42
aF3.881
aF2.013
aF4.838
aF2.05
aF5.785
aF5.234
aF3.043
aF1.753
aF2.42
aF3.242
aF0.835
aF3.224
aF4.243
aF3.697
aF5.447
aF5.25
aF1.061
aF4.518
aF2.391
aF5.811
aF2.826
aF1.179
aF5.909
aF3.001
aF0.26
aF3.577
asI142
(lp71
F5.172
aF5.55
aF4.029
aF3.689
aF1.0
aF4.078
aF6.635
aF9.478
aF5.04
aF7.573
aF5.511
aF8.161
aF5.685
aF1.898
aF3.883
aF4.167
aF3.562
aF4.408
aF3.805
aF9.274
aF2.173
aF10.232
aF4.528
aF7.02
aF3.599
aF2.635
aF8.03
aF10.324
aF7.544
aF3.318
aF4.1
aF3.106
aF5.545
aF6.466
aF5.393
aF2.424
aF3.073
aF4.722
aF6.27
aF1.203
aF1.819
aF6.381
aF3.577
aF7.293
aF2.74
aF4.687
aF2.055
aF7.331
aF5.455
aF4.61
aF5.395
aF7.584
aF1.245
aF6.782
aF9.355
aF6.993
aF2.776
aF4.106
aF6.134
aF2.228
aF2.144
aF3.584
aF3.662
aF4.908
aF6.031
aF3.501
asI145
(lp72
F6.555
aF12.639
aF3.611
aF8.231
aF10.9
aF9.197
aF3.965
aF2.64
aF5.083
aF7.926
aF5.985
aF2.837
aF4.343
aF4.189
aF2.598
aF0.186
aF2.872
aF9.431
aF1.035
aF4.154
aF5.277
aF3.37
aF3.842
aF2.526
aF8.869
aF1.073
aF2.621
aF0.906
aF5.203
aF5.575
aF2.908
aF1.93
aF3.391
aF3.808
aF2.083
aF4.821
aF2.06
aF7.99
aF6.171
aF5.179
aF4.367
aF2.473
aF2.471
aF1.648
aF3.216
aF4.588
aF3.785
aF3.869
aF3.419
aF6.253
aF2.036
aF4.925
aF2.217
aF4.634
aF2.667
aF4.734
aF6.73
aF4.239
aF4.536
aF8.22
aF7.456
aF14.796
aF7.831
aF5.579
aF6.457
aF4.238
aF7.262
aF2.873
aF4.506
aF1.242
asI146
(lp73
F5.318
aF7.597
aF4.54
aF3.44
aF1.137
aF0.977
aF7.129
aF4.563
aF6.009
aF3.549
aF3.366
aF4.025
aF1.394
aF5.287
aF5.577
aF2.558
aF2.625
aF7.103
aF3.565
aF5.449
aF4.39
aF4.106
aF4.323
aF5.954
aF11.906
aF1.041
aF5.364
aF5.561
aF7.893
aF9.912
aF4.216
aF4.787
aF7.547
aF5.473
aF0.308
aF3.786
aF5.976
aF4.02
aF1.815
aF1.936
aF4.673
aF3.642
aF5.521
aF0.954
aF4.206
aF2.952
aF2.085
aF5.868
aF4.312
aF9.643
aF1.682
aF7.14
aF2.644
aF3.417
aF4.541
aF2.704
aF1.783
aF3.742
aF3.397
aF3.418
aF2.415
aF4.465
aF5.148
aF5.717
aF1.82
aF3.017
aF2.825
aF1.833
aF4.118
aF7.102
aF2.994
aF0.163
aF4.535
aF8.777
aF5.215
aF2.067
asI147
(lp74
F5.501
aF8.496
aF10.133
aF1.939
aF3.304
aF2.534
aF3.399
aF8.123
aF2.425
aF4.887
aF2.227
aF6.301
aF5.997
aF3.506
aF6.285
aF7.558
aF1.373
aF3.476
aF14.145
aF4.227
aF3.358
aF4.466
aF2.013
aF3.313
aF17.94
aF12.619
aF1.863
aF11.353
aF10.162
aF2.784
aF4.977
aF2.771
aF4.044
aF4.578
aF5.847
aF0.172
aF4.671
aF3.3
aF2.774
aF3.846
aF9.997
aF7.427
aF12.712
aF8.227
aF6.551
aF6.199
aF5.436
aF5.142
aF7.155
aF4.29
aF3.378
aF2.686
aF13.41
aF7.305
aF7.504
aF3.642
aF3.888
aF1.645
aF1.761
aF6.987
asI148
(lp75
F4.348
aF4.116
aF2.766
aF4.6
aF5.841
aF6.777
aF5.071
aF0.122
aF3.236
aF2.222
aF6.33
aF4.39
aF3.042
aF1.885
aF4.228
aF5.32
aF4.491
aF3.005
aF1.628
aF1.239
aF0.611
aF11.436
aF0.952
aF3.492
aF1.377
aF4.933
aF2.862
aF2.999
aF1.803
aF7.659
aF3.218
aF2.956
aF7.475
aF3.005
aF3.15
aF14.162
aF11.464
aF2.73
aF3.672
aF2.945
aF3.958
aF3.369
aF8.347
aF5.138
aF6.558
aF6.793
aF5.581
aF2.846
aF3.376
aF7.95
aF5.034
aF3.318
aF1.803
aF5.267
aF5.526
aF1.971
aF4.033
aF9.029
aF3.711
aF6.019
aF3.303
aF7.969
aF3.886
aF3.399
asI154
(lp76
F6.225
aF4.443
aF2.231
aF2.778
aF3.504
aF0.134
aF3.499
aF2.695
aF7.732
aF1.842
aF2.155
aF2.7
aF4.866
aF8.298
aF9.359
aF3.491
aF2.074
aF4.082
aF0.08
aF6.874
aF3.432
aF3.176
aF4.6
aF3.673
aF1.799
aF2.84
aF1.588
aF10.508
aF3.65
aF10.25
aF4.335
aF7.791
aF5.806
aF4.587
aF4.805
aF8.507
aF9.392
aF4.743
aF3.014
aF3.257
aF2.55
aF5.469
aF3.521
aF6.811
aF2.304
aF6.032
aF0.271
aF1.979
aF0.419
aF1.789
aF2.457
aF7.843
aF2.852
aF2.256
aF6.122
aF1.749
aF6.649
asI155
(lp77
F2.964
aF5.544
aF4.742
aF4.036
aF6.116
aF9.063
aF4.791
aF2.787
aF2.702
aF6.9
aF3.963
aF2.651
aF5.176
aF5.106
aF7.2
aF7.587
aF4.349
aF4.994
aF3.396
aF5.683
aF4.353
aF11.721
aF4.528
aF10.343
aF4.747
aF4.682
aF6.037
aF5.833
aF5.14
aF1.957
aF8.605
aF5.337
aF8.649
aF6.036
aF6.6
aF3.515
aF3.221
aF5.309
aF5.322
aF1.002
aF4.537
aF4.567
aF6.892
aF1.964
aF2.496
aF5.555
aF1.752
aF0.068
aF0.922
aF3.132
aF3.127
aF1.819
aF4.805
aF1.964
aF2.475
aF4.462
aF4.001
aF2.932
aF4.373
aF1.778
aF2.679
aF2.67
aF1.89
aF1.794
aF2.62
aF3.622
aF3.253
aF3.415
aF7.081
aF3.17
aF5.105
aF4.091
asI156
(lp78
F4.125
aF4.265
aF6.089
aF6.79
aF1.642
aF5.363
aF10.139
aF5.599
aF4.823
aF4.188
aF6.133
aF0.923
aF1.608
aF4.104
aF8.959
aF7.371
aF4.778
aF7.071
aF10.682
aF4.211
aF7.185
aF3.55
aF2.059
aF2.045
aF3.532
aF6.509
aF4.478
aF5.411
aF3.344
aF4.047
aF5.904
aF1.081
aF4.093
aF0.284
aF5.131
aF1.767
aF3.127
aF3.416
aF9.408
aF2.438
aF3.881
aF3.856
aF4.779
aF5.0
aF4.605
aF1.932
aF2.606
aF7.042
aF3.657
aF8.783
aF9.4
aF4.324
aF4.679
aF8.398
aF1.589
aF2.498
aF5.739
aF6.395
aF3.375
aF5.308
aF1.475
aF2.679
aF4.351
aF3.607
aF1.814
asI157
(lp79
F7.136
aF5.795
aF5.305
aF5.031
aF5.166
aF7.642
aF4.498
aF6.619
aF2.513
aF2.811
aF3.341
aF1.754
aF4.474
aF7.561
aF4.973
aF3.549
aF5.318
aF1.958
aF4.909
aF5.057
aF3.145
aF4.411
aF1.986
aF1.796
aF3.515
aF0.925
aF3.265
aF5.126
aF5.439
aF7.725
aF3.534
aF4.49
aF8.202
aF10.794
aF3.396
aF4.378
aF2.086
aF4.276
aF5.244
aF2.869
aF7.308
aF7.552
aF4.51
aF8.45
aF0.367
aF5.24
aF0.211
aF3.568
aF1.058
aF5.32
aF3.302
aF4.61
aF5.906
aF6.568
aF4.539
aF7.609
aF6.371
aF2.322
aF2.04
aF1.179
aF6.946
aF1.903
aF3.153
aF3.935
aF2.766
aF0.14
aF2.037
aF4.717
aF11.651
asI158
(lp80
F3.165
aF13.196
aF9.633
aF2.939
aF4.483
aF5.611
aF4.262
aF1.912
aF4.548
aF7.786
aF2.096
aF5.752
aF7.918
aF5.442
aF5.771
aF3.491
aF3.712
aF4.59
aF8.349
aF6.17
aF5.353
aF4.202
aF3.201
aF3.283
aF1.713
aF5.046
aF4.615
aF1.747
aF1.434
aF3.317
aF3.304
aF3.539
aF5.133
aF6.094
aF9.806
aF3.173
aF1.704
aF2.624
aF3.145
aF3.692
aF4.162
aF10.602
aF4.481
aF2.74
aF2.397
aF1.644
aF1.163
aF9.324
aF4.782
aF4.001
aF3.78
aF10.299
aF4.873
aF7.007
asI159
(lp81
F9.832
aF11.857
aF6.649
aF9.399
aF3.185
aF8.312
aF4.364
aF4.181
aF10.306
aF4.89
aF5.445
aF3.116
aF2.081
aF9.956
aF6.88
aF4.344
aF3.451
aF4.852
aF5.129
aF13.788
aF2.797
aF3.479
aF2.657
aF5.291
aF5.314
aF1.825
aF1.764
aF9.189
aF4.192
aF4.878
aF3.431
aF6.1
aF4.656
aF1.882
aF8.807
aF4.647
aF6.354
aF8.707
aF4.345
aF3.413
aF2.618
aF5.682
aF6.188
aF1.8
aF6.757
aF7.433
aF3.615
asI160
(lp82
F5.147
aF8.544
aF3.53
aF7.315
aF4.53
aF16.824
aF7.876
aF4.495
aF4.418
aF3.528
aF2.812
aF7.867
aF3.118
aF5.301
aF7.428
aF6.785
aF3.502
aF2.95
aF4.833
aF8.423
aF4.515
aF3.439
aF5.062
aF5.61
aF7.19
aF5.699
aF1.058
aF7.189
aF6.129
aF8.077
aF4.357
aF5.273
aF8.522
aF8.811
aF6.553
aF5.417
aF9.097
aF3.389
aF6.45
aF5.992
aF3.507
aF2.068
aF1.031
aF8.537
aF4.421
aF6.715
asI165
(lp83
F3.0
aF4.348
aF4.869
aF4.413
aF3.474
aF7.811
aF3.19
aF3.376
aF7.213
aF3.462
aF6.291
aF5.763
aF7.086
aF4.446
aF7.014
aF4.981
aF3.607
aF3.073
aF1.826
aF8.694
aF2.839
aF2.81
aF4.349
aF6.606
aF3.277
aF5.182
aF4.375
aF1.816
aF4.328
aF5.767
aF2.89
aF6.587
aF1.746
aF3.678
aF3.205
aF7.189
aF4.064
aF6.312
aF3.618
aF2.282
aF4.313
aF1.093
aF3.6
aF2.35
aF2.833
aF8.206
aF4.754
aF3.881
aF6.862
aF9.867
aF8.651
aF8.329
aF5.218
asI166
(lp84
F5.842
aF3.737
aF7.087
aF3.415
aF7.963
aF3.291
aF2.605
aF5.227
aF2.495
aF10.241
aF2.655
aF2.126
aF2.079
aF1.76
aF4.566
aF16.451
aF11.383
aF5.325
aF3.859
aF5.474
aF11.571
aF2.577
aF5.929
aF8.596
aF14.178
aF2.745
aF8.561
aF6.505
aF2.714
aF3.547
aF5.931
aF3.273
aF10.52
aF7.736
aF10.226
aF12.151
aF10.409
aF2.472
aF3.032
aF4.796
aF4.546
aF7.377
aF2.841
aF2.016
aF2.821
aF1.044
aF5.979
aF2.776
aF1.234
aF6.613
aF2.062
aF3.319
aF4.19
aF5.069
aF4.559
aF1.364
aF5.007
aF5.402
aF0.266
aF11.621
aF3.773
aF15.799
aF2.632
aF3.436
aF8.183
aF5.437
asI167
(lp85
F3.583
aF3.273
aF5.616
aF6.107
aF6.07
aF5.432
aF3.19
aF5.602
aF6.151
aF9.496
aF5.845
aF6.558
aF5.924
aF3.212
aF8.151
aF5.133
aF8.944
aF8.85
aF2.942
aF6.534
aF5.364
aF6.981
aF7.226
aF1.334
aF0.948
aF0.279
aF1.34
aF2.997
aF6.228
aF2.063
aF3.263
aF6.915
aF6.421
aF7.123
aF3.616
aF8.619
aF6.921
aF6.133
aF5.527
aF5.613
aF3.045
aF8.182
aF3.455
aF7.159
aF2.594
aF1.473
aF4.935
aF3.739
aF2.831
aF12.555
aF7.406
aF7.603
aF4.609
aF7.577
aF4.717
aF7.493
aF3.733
aF0.79
aF13.879
aF4.691
aF7.448
aF1.507
aF1.231
asI171
(lp86
F5.067
aF5.336
aF2.315
aF2.506
aF2.609
aF3.839
aF2.103
aF12.274
aF8.84
aF3.374
aF6.047
aF0.999
aF3.81
aF8.851
aF4.961
aF4.081
aF3.383
aF3.512
aF6.507
aF2.272
aF0.98
aF6.982
aF4.393
aF8.389
aF0.85
aF7.814
aF2.526
aF1.11
aF4.344
aF1.248
aF5.114
aF4.789
aF4.403
aF1.979
aF6.136
aF1.71
aF6.733
aF6.358
aF3.573
aF5.469
aF5.315
aF9.086
aF10.884
aF15.681
aF6.228
aF5.803
aF3.626
aF3.632
aF3.489
aF5.273
aF4.471
aF4.734
aF2.02
aF4.534
asI172
(lp87
F8.244
aF5.08
aF1.75
aF6.786
aF5.428
aF4.598
aF7.725
aF9.392
aF2.773
aF12.17
aF1.832
aF1.208
aF6.705
aF5.056
aF5.412
aF5.45
aF9.37
aF10.057
aF5.386
aF1.195
aF4.486
aF3.717
aF3.551
aF5.756
aF1.062
aF4.124
aF3.799
aF10.15
aF4.879
aF5.549
aF7.453
aF3.271
aF3.873
aF3.542
aF9.318
aF4.999
aF4.573
aF4.101
aF8.603
aF4.961
aF10.949
aF3.423
aF8.057
aF3.156
aF3.263
aF1.855
aF5.825
aF9.228
aF3.487
aF4.776
aF4.79
aF10.782
aF8.678
aF3.501
aF3.164
asI174
(lp88
F9.01
aF9.079
aF10.049
aF2.023
aF1.987
aF5.928
aF3.821
aF6.032
aF1.128
aF3.953
aF3.463
aF0.471
aF5.13
aF4.079
aF8.487
aF6.988
aF2.619
aF4.854
aF1.844
aF1.681
aF8.143
aF4.789
aF10.821
aF6.355
aF2.893
aF3.573
aF5.498
aF5.959
aF1.809
aF4.903
aF1.865
aF7.771
aF4.406
aF13.384
aF3.286
aF1.981
aF6.542
aF4.733
aF2.083
aF3.556
aF6.074
aF4.856
aF4.606
aF3.651
aF3.343
aF10.963
aF4.784
aF4.635
aF7.114
aF7.896
aF5.96
aF6.816
aF4.502
aF5.844
aF6.278
aF5.285
aF7.516
aF2.551
asI178
(lp89
F7.753
aF5.561
aF8.816
aF4.773
aF4.948
aF4.866
aF1.985
aF2.424
aF2.698
aF6.427
aF1.686
aF8.173
aF5.663
aF6.05
aF3.38
aF4.749
aF4.336
aF5.243
aF3.584
aF9.845
aF3.874
aF6.491
aF6.074
aF7.978
aF1.374
aF1.858
aF4.924
aF3.988
aF5.198
aF6.302
aF4.432
aF6.447
aF6.791
aF3.515
aF12.205
aF4.646
aF8.649
aF6.303
aF6.66
aF6.666
aF4.796
aF6.218
aF3.481
aF3.582
aF1.953
aF3.95
aF6.582
aF7.708
aF2.476
aF6.301
aF7.203
aF8.855
aF2.065
aF8.974
aF8.055
aF2.488
aF6.637
aF10.507
aF7.655
aF3.208
aF6.959
asI180
(lp90
F3.379
aF2.765
aF7.93
aF7.7
aF4.671
aF6.006
aF1.014
aF4.876
aF3.851
aF3.888
aF4.769
aF7.496
aF2.597
aF6.277
aF9.522
aF5.445
aF8.203
aF5.271
aF5.3
aF3.306
aF5.518
aF3.251
aF1.759
aF5.799
aF3.477
aF2.772
aF2.157
aF6.162
aF2.471
aF9.157
aF6.959
aF3.733
aF11.767
aF2.078
aF2.044
aF6.898
aF8.48
aF7.075
aF2.787
aF12.206
aF4.32
aF11.149
aF6.07
aF4.668
aF5.486
aF4.22
aF7.115
aF5.201
aF5.38
aF4.749
asI181
(lp91
F7.058
aF9.033
aF7.143
aF6.388
aF5.201
aF1.752
aF3.618
aF3.06
aF1.86
aF3.12
aF4.38
aF3.794
aF4.88
aF3.992
aF2.878
aF7.458
aF6.28
aF4.265
aF1.792
aF4.905
aF1.865
aF6.945
aF4.498
aF5.687
aF8.461
aF1.639
aF7.522
aF1.851
aF2.994
aF5.087
aF4.014
aF4.018
aF1.725
aF2.406
aF4.507
aF3.115
aF6.269
aF11.758
aF14.833
aF10.063
aF3.454
aF6.946
aF4.6
aF3.394
aF6.314
aF2.857
aF10.62
aF4.469
aF5.139
aF5.735
aF4.66
aF4.373
aF4.88
aF4.233
aF6.945
asI183
(lp92
F1.896
aF3.468
aF3.706
aF2.123
aF2.047
aF2.72
aF3.273
aF8.649
aF6.4
aF3.742
aF5.387
aF1.802
aF7.022
aF3.005
aF2.031
aF3.296
aF6.817
aF3.394
aF4.467
aF3.706
aF4.542
aF1.753
aF1.577
aF5.785
aF2.677
aF4.675
aF6.043
aF9.221
aF4.131
aF5.833
aF6.819
aF4.9
aF2.535
aF7.29
aF6.106
aF3.69
aF1.282
aF5.095
aF12.669
aF1.535
aF4.431
aF3.492
aF3.553
aF5.376
aF4.715
aF2.636
aF2.112
aF6.654
aF3.185
aF9.468
aF4.991
aF2.523
aF4.562
aF11.205
aF6.269
aF3.061
aF2.824
aF4.497
aF6.843
aF2.929
asI184
(lp93
F11.32
aF5.407
aF5.475
aF5.846
aF0.826
aF5.331
aF4.035
aF4.845
aF4.878
aF3.912
aF7.576
aF2.553
aF5.492
aF4.557
aF4.494
aF6.449
aF3.503
aF2.182
aF4.015
aF20.211
aF7.159
aF8.793
aF1.159
aF8.9
aF4.955
aF8.338
aF4.001
aF6.373
aF4.243
aF11.432
aF3.273
aF9.805
aF5.341
aF3.765
aF10.402
aF5.764
aF6.28
aF1.41
aF7.723
aF6.971
aF3.659
aF6.319
aF7.28
aF9.734
aF8.142
aF6.568
aF4.334
aF9.489
aF6.864
aF10.194
asI185
(lp94
F5.705
aF5.296
aF3.737
aF3.373
aF1.97
aF4.611
aF2.943
aF2.803
aF6.449
aF8.28
aF6.151
aF10.001
aF6.44
aF5.533
aF9.388
aF4.295
aF2.783
aF3.933
aF1.054
aF2.701
aF5.604
aF13.487
aF4.452
aF6.111
aF8.857
aF9.502
aF11.745
aF5.096
aF3.32
aF5.489
aF7.189
aF1.762
aF5.303
aF3.329
aF5.98
aF3.052
aF5.597
aF3.541
aF7.523
aF1.308
aF2.842
aF4.937
aF2.266
aF4.344
aF1.523
aF6.744
aF5.304
aF2.778
aF3.095
aF6.182
aF12.556
aF2.945
aF1.546
aF2.756
aF11.031
aF4.836
aF4.949
asI189
(lp95
F1.817
aF1.656
aF5.132
aF10.088
aF7.327
aF2.961
aF4.326
aF2.46
aF7.28
aF2.277
aF1.25
aF3.926
aF2.858
aF2.126
aF4.387
aF1.031
aF3.622
aF4.537
aF8.798
aF3.56
aF5.449
aF5.904
aF4.274
aF3.904
aF3.993
aF3.959
aF8.869
aF6.112
aF4.227
aF2.606
aF4.742
aF6.119
aF3.147
aF9.749
aF7.434
aF3.37
aF2.472
aF3.257
aF5.106
aF2.423
aF4.683
aF1.174
aF5.639
aF2.714
aF2.66
aF7.187
aF1.652
aF3.468
aF3.449
aF10.316
aF7.133
aF4.86
aF2.2
aF2.732
aF1.977
aF5.43
aF5.096
aF2.554
aF3.064
aF4.315
aF3.59
aF6.13
aF10.339
aF0.408
aF2.002
aF6.392
aF8.449
aF2.651
aF8.326
aF8.736
aF1.766
aF2.881
aF7.712
asI191
(lp96
F5.735
aF2.944
aF8.636
aF2.532
aF7.069
aF6.22
aF4.164
aF1.546
aF8.158
aF7.03
aF11.869
aF5.313
aF1.633
aF2.013
aF6.007
aF2.004
aF1.574
aF3.976
aF8.159
aF3.22
aF9.194
aF7.539
aF10.142
aF2.669
aF1.882
aF11.842
aF2.634
aF3.184
aF4.571
aF7.661
aF6.797
aF4.154
aF6.289
aF5.348
aF5.675
aF3.29
aF5.203
aF3.693
aF3.591
aF7.976
aF3.673
aF2.165
aF6.079
aF10.668
aF7.716
aF6.87
aF7.195
aF1.168
aF1.327
aF3.184
aF4.361
aF2.584
aF5.45
aF5.77
aF11.137
aF4.48
aF7.27
aF1.935
aF5.321
aF4.266
aF3.396
aF7.101
aF6.218
aF11.107
aF3.024
asI192
(lp97
F2.745
aF9.994
aF6.394
aF8.0
aF6.338
aF7.197
aF3.486
aF1.755
aF3.98
aF9.977
aF3.976
aF4.27
aF2.118
aF3.182
aF5.52
aF11.787
aF2.046
aF4.51
aF8.265
aF7.392
aF2.554
aF5.301
aF10.5
aF8.048
aF4.532
aF3.257
aF2.51
aF4.491
aF5.707
aF3.589
aF10.497
aF2.059
aF6.824
aF7.895
aF11.843
aF6.887
aF8.485
aF3.439
aF3.371
aF3.202
aF2.659
aF2.04
aF1.179
aF5.233
aF8.871
aF10.259
aF1.981
aF1.903
aF5.773
aF4.187
aF2.142
aF7.548
aF2.974
aF2.921
aF2.114
aF3.318
aF2.978
aF1.665
aF2.196
aF4.883
aF4.013
aF3.516
aF3.628
aF3.621
aF4.174
aF5.908
asI196
(lp98
F4.299
aF5.327
aF7.286
aF9.281
aF7.267
aF8.528
aF3.811
aF3.574
aF10.254
aF5.073
aF3.749
aF5.64
aF3.13
aF7.709
aF3.718
aF6.314
aF5.416
aF5.82
aF3.656
aF7.929
aF2.865
aF7.85
aF6.208
aF4.938
aF5.288
aF5.045
aF5.949
aF7.741
aF7.781
aF9.929
aF7.843
aF5.956
aF2.408
aF5.163
aF3.068
aF3.833
aF4.403
aF6.268
aF4.333
aF13.983
aF7.518
aF4.73
aF4.372
aF6.553
aF4.57
aF9.933
aF3.93
aF3.715
aF5.288
aF2.75
aF9.056
aF7.553
aF2.138
aF2.595
aF2.855
aF3.326
aF1.911
asI197
(lp99
F3.475
aF2.908
aF5.792
aF4.004
aF6.767
aF7.725
aF2.984
aF3.231
aF3.731
aF3.743
aF4.383
aF5.635
aF4.371
aF3.39
aF6.062
aF5.75
aF3.761
aF10.039
aF10.783
aF3.032
aF6.062
aF5.087
aF10.569
aF5.212
aF5.436
aF4.988
aF5.793
aF9.66
aF3.459
aF4.063
aF3.674
aF9.823
aF3.843
aF5.379
aF6.224
aF6.755
aF5.56
aF3.362
aF3.058
aF5.207
aF10.556
aF9.416
aF0.568
aF6.321
aF2.487
aF4.752
aF7.744
aF3.002
aF4.726
aF9.825
aF3.889
aF3.366
aF2.131
aF2.677
aF5.164
asI199
(lp100
F4.649
aF2.073
aF4.31
aF3.535
aF8.708
aF5.497
aF2.198
aF4.224
aF6.448
aF4.064
aF3.598
aF10.777
aF11.551
aF4.559
aF5.64
aF6.433
aF4.257
aF8.071
aF6.173
aF7.902
aF4.518
aF3.36
aF4.518
aF10.835
aF3.52
aF1.825
aF14.089
aF5.626
aF5.17
aF6.092
aF2.658
aF3.159
aF4.634
aF6.951
aF4.471
aF5.388
aF6.206
aF4.494
aF4.696
aF6.022
aF5.813
aF7.077
aF4.591
aF8.951
aF7.751
aF13.995
aF5.725
aF3.336
aF8.866
aF12.356
aF4.035
aF3.456
aF2.865
aF5.808
aF9.016
aF3.24
aF4.496
aF7.517
aF7.25
aF2.943
as.