(dp0
I2
(lp1
I166
aI108
aI195
aI144
aI106
aI138
aI63
aI137
aI216
aI72
aI142
aI193
aI94
aI89
aI112
aI101
aI134
aI196
aI141
aI146
aI137
aI101
aI202
aI120
aI192
aI200
aI128
aI116
aI181
aI181
aI105
aI139
aI135
aI176
aI273
aI107
aI245
aI352
aI138
aI281
aI109
aI124
asI3
(lp2
I223
aI101
aI164
aI132
aI218
aI120
aI166
aI200
aI143
aI182
aI117
aI148
aI272
aI190
aI254
aI250
aI170
aI162
aI147
aI115
aI190
aI122
aI133
aI120
aI233
aI126
aI159
aI102
aI137
aI145
aI81
aI83
aI177
aI98
aI146
aI99
aI105
asI6
(lp3
I153
aI163
aI129
aI177
aI126
aI202
aI171
aI252
aI138
aI207
aI139
aI119
aI112
aI109
aI152
aI245
aI176
aI185
aI86
aI131
aI104
aI136
aI170
aI133
aI181
aI130
aI146
aI138
aI153
aI95
aI127
aI141
aI137
aI152
aI132
aI140
aI97
aI190
aI161
aI101
aI181
asI7
(lp4
I265
aI144
aI225
aI181
aI127
aI121
aI119
aI109
aI109
aI94
aI123
aI192
aI149
aI110
aI153
aI120
aI127
aI106
aI160
aI123
aI160
aI143
aI93
aI215
aI136
aI176
aI142
aI134
aI171
aI127
aI151
aI161
aI121
aI190
aI160
asI9
(lp5
I261
aI159
aI221
aI126
aI197
aI109
aI186
aI105
aI172
aI194
aI90
aI52
aI109
aI86
aI178
aI150
aI110
aI147
aI113
aI122
aI164
aI133
aI177
aI154
aI117
aI204
aI157
aI121
aI75
aI176
aI120
aI230
aI187
aI153
aI170
aI118
asI11
(lp6
I167
aI127
aI179
aI135
aI241
aI197
aI116
aI193
aI159
aI138
aI252
aI137
aI128
aI171
aI119
aI249
aI150
aI142
aI131
aI184
aI216
aI118
aI127
aI198
aI118
aI166
aI134
aI158
aI128
aI215
aI116
aI211
aI175
aI113
aI193
aI104
asI13
(lp7
I223
aI206
aI202
aI252
aI147
aI199
aI162
aI131
aI99
aI211
aI119
aI135
aI218
aI217
aI123
aI303
aI257
aI144
aI162
aI100
aI175
aI105
aI194
aI163
aI254
aI171
aI169
aI111
aI117
aI188
aI156
aI214
aI94
aI129
aI147
aI185
asI15
(lp8
I218
aI146
aI84
aI136
aI132
aI150
aI132
aI136
aI179
aI107
aI170
aI102
aI162
aI212
aI127
aI164
aI158
aI128
aI124
aI141
aI146
aI141
aI182
aI120
aI141
aI197
aI86
aI139
aI97
aI134
aI105
aI133
aI164
aI142
aI208
asI18
(lp9
I180
aI226
aI217
aI226
aI136
aI191
aI222
aI214
aI193
aI177
aI158
aI153
aI200
aI132
aI151
aI231
aI141
aI144
aI173
aI283
aI157
aI189
aI102
aI118
aI200
aI174
aI149
aI188
asI19
(lp10
I193
aI156
aI219
aI168
aI109
aI143
aI211
aI149
aI190
aI230
aI93
aI152
aI326
aI188
aI188
aI137
aI184
aI189
aI225
aI147
aI127
aI116
aI214
aI179
aI123
aI145
aI189
aI187
aI135
aI117
aI124
aI176
asI21
(lp11
I221
aI181
aI120
aI199
aI109
aI179
aI182
aI143
aI114
aI141
aI158
aI99
aI151
aI207
aI155
aI189
aI155
aI134
aI199
aI147
aI166
aI177
aI157
aI116
aI228
aI203
aI193
aI176
aI156
aI172
aI156
aI206
aI211
aI181
asI23
(lp12
I217
aI184
aI138
aI167
aI145
aI96
aI145
aI143
aI200
aI147
aI120
aI196
aI178
aI214
aI209
aI179
aI176
aI191
aI160
aI176
aI186
aI207
aI244
aI117
aI181
aI126
aI178
aI123
aI218
aI187
asI24
(lp13
I123
aI132
aI202
aI104
aI182
aI167
aI158
aI97
aI141
aI128
aI211
aI140
aI140
aI175
aI115
aI106
aI128
aI130
aI216
aI106
aI342
aI189
aI276
aI230
aI144
aI121
aI154
aI106
aI174
asI25
(lp14
I98
aI54
aI165
aI152
aI145
aI101
aI114
aI150
aI97
aI141
aI144
aI215
aI269
aI261
aI112
aI179
aI109
aI219
aI178
aI157
aI141
aI166
aI318
aI216
aI203
aI190
aI160
aI220
aI184
aI105
aI134
asI28
(lp15
I231
aI159
aI150
aI200
aI119
aI157
aI178
aI151
aI193
aI199
aI151
aI216
aI191
aI119
aI159
aI210
aI128
aI175
aI232
aI179
aI222
aI230
aI149
aI208
aI130
aI147
aI236
aI138
aI168
aI217
aI183
aI183
asI31
(lp16
I292
aI215
aI230
aI184
aI207
aI128
aI239
aI221
aI204
aI203
aI166
aI188
aI209
aI277
aI125
aI154
aI244
aI131
aI126
aI100
aI202
aI106
aI133
aI189
aI203
aI108
aI256
aI138
asI33
(lp17
I156
aI236
aI263
aI149
aI124
aI198
aI216
aI234
aI156
aI120
aI143
aI159
aI128
aI196
aI221
aI222
aI175
aI141
aI159
aI148
aI142
aI103
aI176
aI219
aI130
aI165
aI267
aI148
aI169
aI139
aI134
aI183
aI147
asI35
(lp18
I147
aI127
aI200
aI130
aI122
aI204
aI191
aI125
aI142
aI137
aI133
aI166
aI130
aI168
aI166
aI156
aI102
aI115
aI150
aI261
aI181
aI245
aI178
aI152
aI175
aI125
aI154
aI98
aI147
aI120
aI171
aI186
asI37
(lp19
I162
aI145
aI183
aI167
aI283
aI179
aI161
aI164
aI224
aI226
aI252
aI253
aI256
aI157
aI244
aI242
aI309
aI80
aI128
aI175
aI230
aI95
aI120
aI94
aI131
aI118
aI189
aI257
aI189
asI39
(lp20
I211
aI146
aI130
aI189
aI142
aI146
aI174
aI111
aI245
aI113
aI166
aI135
aI150
aI106
aI138
aI113
aI209
aI201
aI146
aI140
aI152
aI135
aI124
aI126
asI41
(lp21
I225
aI132
aI167
aI121
aI153
aI124
aI249
aI134
aI124
aI157
aI193
aI156
aI205
aI137
aI107
aI183
aI151
aI116
aI136
aI177
aI169
aI198
aI204
aI145
aI211
aI180
aI103
aI175
aI150
aI146
aI107
aI134
asI44
(lp22
I106
aI115
aI114
aI120
aI164
aI132
aI119
aI186
aI189
aI120
aI142
aI157
aI110
aI132
aI223
aI250
aI182
aI148
aI154
aI155
aI140
aI175
aI167
aI243
aI152
aI127
aI239
aI137
aI187
aI126
aI127
aI127
aI113
aI167
aI111
aI158
asI47
(lp23
I242
aI185
aI203
aI161
aI212
aI146
aI179
aI132
aI225
aI162
aI189
aI175
aI149
aI106
aI176
aI227
aI239
aI134
aI242
aI125
aI140
aI96
aI148
aI137
aI120
aI197
aI125
aI229
aI234
aI171
aI197
aI219
aI185
aI158
aI121
asI48
(lp24
I161
aI169
aI157
aI104
aI196
aI160
aI236
aI255
aI101
aI195
aI204
aI276
aI239
aI225
aI160
aI154
aI160
aI183
aI155
aI173
aI196
aI236
aI97
aI180
aI114
aI191
aI137
aI202
aI186
aI179
aI96
asI49
(lp25
I200
aI183
aI201
aI116
aI168
aI96
aI207
aI132
aI226
aI230
aI116
aI168
aI171
aI151
aI158
aI189
aI182
aI194
aI95
aI108
aI107
aI127
aI197
aI163
aI177
aI160
aI222
aI242
aI149
aI200
aI114
aI125
aI205
aI120
asI51
(lp26
I111
aI134
aI242
aI223
aI149
aI133
aI84
aI228
aI114
aI118
aI149
aI104
aI171
aI141
aI103
aI184
aI229
aI144
aI148
aI217
aI195
aI147
aI136
aI153
aI140
aI124
aI115
aI241
aI173
aI113
aI211
aI199
aI167
aI369
aI167
aI189
aI185
aI131
aI221
asI53
(lp27
I172
aI260
aI196
aI220
aI103
aI140
aI261
aI128
aI152
aI193
aI173
aI164
aI84
aI102
aI111
aI189
aI183
aI141
aI122
aI168
aI149
aI267
aI142
aI141
aI157
aI150
aI256
aI137
aI196
aI183
aI150
aI127
aI261
aI154
aI155
aI253
aI205
aI218
aI172
aI296
aI173
aI143
asI55
(lp28
I145
aI241
aI138
aI179
aI254
aI240
aI154
aI195
aI129
aI310
aI141
aI225
aI115
aI184
aI140
aI248
aI152
aI222
aI212
aI203
aI268
aI144
aI78
aI261
aI130
aI173
aI102
aI275
aI242
aI257
aI121
aI197
aI126
aI128
aI197
aI187
aI168
aI113
aI162
aI137
asI57
(lp29
I180
aI152
aI161
aI238
aI208
aI244
aI126
aI127
aI148
aI168
aI184
aI187
aI110
aI217
aI122
aI156
aI165
aI288
aI155
aI150
aI354
aI234
aI221
aI245
aI248
aI181
aI134
aI311
aI170
aI243
aI113
aI224
aI196
aI225
aI241
aI144
aI138
aI225
aI127
aI209
aI105
aI204
aI310
asI59
(lp30
I173
aI141
aI129
aI166
aI187
aI138
aI234
aI147
aI213
aI149
aI207
aI193
aI209
aI202
aI155
aI219
aI176
aI177
aI184
aI114
aI174
aI169
aI173
aI129
aI327
aI199
aI101
aI220
aI162
aI170
aI174
aI125
aI119
aI112
aI217
aI242
aI172
aI234
aI157
aI111
aI239
aI174
aI123
asI61
(lp31
I142
aI230
aI217
aI160
aI174
aI126
aI229
aI166
aI278
aI257
aI128
aI238
aI242
aI315
aI151
aI218
aI191
aI134
aI116
aI159
aI146
aI149
aI172
aI327
aI175
aI157
aI308
aI192
aI160
aI260
aI217
aI303
aI191
aI152
aI210
aI173
aI230
aI207
aI166
aI160
aI131
aI130
aI164
aI296
aI150
aI248
aI134
aI229
aI340
aI172
asI63
(lp32
I264
aI109
aI144
aI169
aI318
aI158
aI186
aI158
aI132
aI123
aI147
aI245
aI154
aI192
aI156
aI253
aI198
aI242
aI233
aI146
aI154
aI199
aI160
aI150
aI188
aI225
aI208
aI228
aI199
aI235
aI193
aI225
aI141
aI179
aI221
aI226
aI185
aI209
aI224
aI242
aI151
aI215
asI65
(lp33
I221
aI160
aI192
aI211
aI232
aI153
aI236
aI209
aI143
aI220
aI205
aI197
aI149
aI214
aI223
aI202
aI261
aI183
aI142
aI196
aI281
aI151
aI222
aI241
aI187
aI174
aI185
aI151
aI164
aI245
aI336
aI245
aI257
aI289
aI172
aI211
aI249
aI206
aI160
aI321
aI193
aI157
aI240
aI190
aI148
aI170
aI255
aI291
aI125
aI200
aI177
aI138
aI180
aI137
aI217
asI70
(lp34
I142
aI149
aI281
aI164
aI115
aI230
aI107
aI158
aI263
aI118
aI190
aI175
aI95
aI168
aI211
aI105
aI197
aI271
aI202
aI221
aI324
aI196
aI257
aI114
aI206
aI167
aI175
aI200
aI183
aI194
aI144
aI284
aI166
aI139
aI243
aI194
aI222
aI314
aI140
aI179
aI174
aI221
aI173
aI113
aI125
aI205
aI242
aI278
aI134
aI241
aI219
asI71
(lp35
I186
aI252
aI235
aI240
aI223
aI154
aI249
aI172
aI127
aI98
aI117
aI78
aI182
aI337
aI161
aI169
aI141
aI115
aI145
aI113
aI180
aI276
aI207
aI268
aI326
aI190
aI102
aI134
aI107
aI197
aI97
aI128
aI81
aI69
aI98
aI164
aI98
aI126
aI122
aI206
aI135
aI108
aI106
aI184
aI193
aI171
aI95
aI155
aI120
aI133
aI123
aI132
aI144
aI148
aI157
aI165
aI169
aI145
aI198
aI130
aI153
aI177
aI172
aI174
aI131
aI184
aI208
aI104
aI178
aI207
aI292
aI102
aI133
aI156
aI148
aI96
aI244
aI191
aI119
aI115
aI136
aI211
aI136
asI72
(lp36
I151
aI113
aI207
aI208
aI121
aI106
aI176
aI144
aI150
aI281
aI84
aI116
aI185
aI215
aI153
aI106
aI65
aI132
aI118
aI258
aI137
aI198
aI191
aI134
aI119
aI144
aI173
aI120
aI212
aI148
aI196
aI211
aI184
aI78
aI300
aI147
aI118
aI122
aI114
aI139
aI246
aI86
aI162
aI215
aI113
aI231
aI171
aI107
aI139
aI182
aI102
aI130
aI185
aI177
aI114
aI138
aI156
aI164
aI203
aI159
aI155
aI84
aI190
aI153
aI190
aI194
aI128
aI171
aI218
asI73
(lp37
I138
aI179
aI222
aI126
aI104
aI287
aI136
aI201
aI287
aI125
aI88
aI130
aI97
aI171
aI70
aI131
aI168
aI165
aI99
aI89
aI118
aI135
aI99
aI95
aI117
aI221
aI98
aI178
aI85
aI81
aI151
aI108
aI143
aI176
aI167
aI103
aI154
aI111
aI264
aI158
aI111
aI112
aI204
aI104
aI153
aI123
aI141
aI176
aI168
aI283
aI179
aI121
aI131
aI130
aI180
aI216
aI157
aI146
aI174
aI157
aI130
aI222
aI142
asI79
(lp38
I114
aI205
aI81
aI90
aI181
aI89
aI129
aI144
aI133
aI128
aI141
aI150
aI108
aI176
aI102
aI85
aI150
aI161
aI78
aI348
aI289
aI175
aI207
aI167
aI295
aI138
aI95
aI148
aI192
aI69
aI195
aI147
aI160
aI196
aI219
aI192
aI163
aI281
aI175
aI135
aI132
aI121
aI197
aI258
asI80
(lp39
I214
aI115
aI328
aI118
aI156
aI167
aI154
aI159
aI208
aI175
aI316
aI217
aI113
aI251
aI124
aI130
aI151
aI119
aI233
aI143
aI244
aI226
aI157
aI168
aI187
aI210
aI135
aI155
aI223
aI106
aI174
aI132
aI173
aI216
aI150
aI96
aI222
aI179
aI187
asI81
(lp40
I111
aI88
aI135
aI220
aI152
aI140
aI141
aI139
aI135
aI98
aI177
aI158
aI111
aI127
aI107
aI182
aI117
aI110
aI135
aI248
aI139
aI185
aI122
aI238
aI173
aI227
aI286
aI238
aI127
aI235
aI253
aI259
aI183
aI193
aI101
aI150
aI160
aI113
aI173
aI247
aI159
aI192
aI212
aI133
aI148
aI130
asI82
(lp41
I203
aI224
aI139
aI184
aI212
aI172
aI120
aI140
aI204
aI111
aI147
aI185
aI187
aI207
aI112
aI163
aI147
aI136
aI141
aI147
aI155
aI138
aI157
aI161
aI244
aI149
aI168
aI150
aI170
aI151
aI206
aI116
aI304
aI138
aI220
aI143
aI157
aI112
asI87
(lp42
I139
aI211
aI149
aI174
aI154
aI211
aI217
aI236
aI178
aI212
aI156
aI154
aI169
aI237
aI174
aI197
aI75
aI158
aI132
aI275
aI267
aI216
aI249
aI156
aI133
aI122
aI243
aI172
aI166
aI169
aI192
aI191
aI190
aI326
aI211
aI114
aI132
aI154
aI101
aI159
aI187
aI146
aI132
asI88
(lp43
I145
aI143
aI103
aI148
aI341
aI255
aI173
aI127
aI167
aI205
aI239
aI210
aI131
aI118
aI205
aI142
aI225
aI198
aI115
aI145
aI154
aI253
aI194
aI126
aI136
aI135
aI154
aI136
aI186
aI162
aI167
aI180
aI158
aI123
aI227
aI167
aI133
aI131
aI326
aI165
asI89
(lp44
I315
aI246
aI229
aI110
aI222
aI200
aI176
aI262
aI333
aI219
aI241
aI192
aI159
aI124
aI186
aI176
aI221
aI132
aI284
aI252
aI199
aI186
aI186
aI124
aI280
aI248
aI275
aI153
aI208
aI207
aI180
aI221
aI154
aI219
aI167
aI138
aI249
aI189
aI228
aI176
aI192
aI226
aI189
aI197
aI265
asI90
(lp45
I256
aI197
aI270
aI200
aI105
aI232
aI297
aI175
aI153
aI198
aI237
aI169
aI151
aI251
aI148
aI178
aI142
aI224
aI336
aI191
aI193
aI173
aI266
aI192
aI144
aI145
aI241
aI152
aI258
aI261
aI166
aI241
aI202
aI273
aI199
aI215
aI182
aI217
aI235
aI256
asI95
(lp46
I204
aI188
aI171
aI138
aI189
aI220
aI232
aI177
aI285
aI119
aI194
aI121
aI135
aI225
aI244
aI110
aI210
aI251
aI206
aI170
aI176
aI187
aI183
aI220
aI132
aI290
aI155
aI238
aI151
aI244
aI152
aI188
aI261
aI270
aI231
aI185
aI148
aI91
aI108
aI205
aI241
aI128
aI136
aI160
aI161
aI203
aI125
asI96
(lp47
I147
aI113
aI115
aI228
aI146
aI167
aI138
aI142
aI155
aI281
aI240
aI177
aI243
aI273
aI190
aI230
aI204
aI196
aI309
aI209
aI323
aI135
aI150
aI136
aI182
aI126
aI220
aI129
aI147
aI166
aI367
aI186
aI202
aI172
aI207
aI176
aI213
aI238
aI219
aI130
aI143
aI221
aI194
asI97
(lp48
I175
aI326
aI218
aI129
aI152
aI186
aI227
aI209
aI155
aI297
aI214
aI292
aI130
aI133
aI94
aI115
aI234
aI167
aI112
aI103
aI188
aI146
aI277
aI129
aI167
aI225
aI212
aI186
aI238
aI129
aI189
aI224
aI128
aI226
aI134
aI178
aI250
aI251
asI98
(lp49
I170
aI163
aI166
aI202
aI199
aI114
aI147
aI125
aI166
aI242
aI172
aI165
aI182
aI92
aI193
aI156
aI131
aI223
aI229
aI130
aI125
aI187
aI278
aI153
aI202
aI189
aI146
aI113
aI266
aI215
aI146
aI214
aI161
aI298
aI344
aI212
aI134
aI273
aI289
aI98
aI176
aI214
aI424
aI429
aI123
asI102
(lp50
I156
aI170
aI88
aI288
aI200
aI152
aI96
aI131
aI75
aI181
aI178
aI157
aI150
aI266
aI101
aI136
aI93
aI79
aI171
aI156
aI83
aI133
aI144
aI117
aI110
aI89
aI140
aI167
aI135
aI112
aI134
aI179
aI225
aI142
aI391
aI165
aI215
aI131
aI205
aI189
aI118
aI147
aI139
aI177
aI161
aI174
aI174
aI256
aI118
aI145
aI106
aI163
aI237
aI186
aI87
aI143
aI95
aI141
aI290
aI164
aI142
asI104
(lp51
I156
aI133
aI168
aI119
aI120
aI209
aI80
aI267
aI85
aI160
aI268
aI188
aI136
aI119
aI183
aI86
aI143
aI121
aI66
aI94
aI147
aI174
aI122
aI121
aI153
aI137
aI123
aI144
aI121
aI78
aI106
aI233
aI161
aI132
aI111
aI161
aI97
aI121
aI200
aI158
aI127
aI113
aI133
aI194
aI101
aI130
aI185
aI182
aI150
aI148
aI153
aI108
aI214
aI177
aI135
aI90
aI82
aI156
aI112
aI151
aI117
aI103
aI191
aI84
aI102
asI105
(lp52
I139
aI149
aI162
aI143
aI239
aI134
aI168
aI169
aI81
aI118
aI189
aI99
aI164
aI132
aI80
aI78
aI178
aI84
aI138
aI123
aI124
aI112
aI99
aI122
aI129
aI93
aI119
aI131
aI88
aI248
aI180
aI203
aI94
aI105
aI194
aI96
aI207
aI92
aI150
aI113
aI106
aI89
aI145
aI135
aI103
aI114
aI142
aI132
aI143
aI141
aI167
aI110
aI167
aI110
aI311
aI128
aI171
aI209
aI124
aI137
asI106
(lp53
I135
aI124
aI149
aI104
aI149
aI126
aI214
aI129
aI232
aI174
aI104
aI119
aI93
aI75
aI89
aI118
aI115
aI106
aI205
aI91
aI111
aI137
aI104
aI124
aI138
aI117
aI117
aI77
aI82
aI155
aI61
aI317
aI123
aI122
aI236
aI215
aI172
aI124
aI160
aI105
aI279
aI101
aI130
aI100
aI93
aI106
aI143
aI115
aI144
aI261
aI193
aI129
aI114
aI181
aI198
aI123
aI149
asI111
(lp54
I176
aI134
aI130
aI237
aI175
aI209
aI77
aI303
aI179
aI158
aI250
aI271
aI143
aI105
aI122
aI188
aI157
aI96
aI249
aI123
aI143
aI157
aI187
aI220
aI254
aI144
aI98
aI125
aI193
aI102
aI131
aI122
aI153
aI120
aI108
aI197
aI111
aI122
aI129
aI162
aI112
aI191
aI123
aI110
aI131
aI177
aI239
aI152
aI201
aI134
aI160
aI150
aI147
aI272
aI141
aI145
aI146
aI240
aI353
aI138
aI106
aI282
aI204
asI112
(lp55
I92
aI81
aI83
aI111
aI127
aI133
aI109
aI164
aI176
aI283
aI138
aI122
aI195
aI171
aI136
aI130
aI95
aI140
aI87
aI99
aI109
aI97
aI105
aI96
aI116
aI151
aI171
aI260
aI149
aI161
aI235
aI128
aI161
aI157
aI118
aI173
aI110
aI180
aI97
aI117
aI130
aI111
aI119
aI147
aI102
aI175
aI85
aI111
aI80
aI107
aI81
aI124
aI99
aI97
aI167
aI168
aI237
aI175
asI113
(lp56
I213
aI353
aI204
aI109
aI149
aI107
aI117
aI78
aI88
aI105
aI106
aI72
aI120
aI130
aI159
aI137
aI106
aI128
aI227
aI204
aI208
aI125
aI164
aI189
aI128
aI312
aI120
aI166
aI89
aI194
aI109
aI268
aI82
aI160
aI97
aI122
aI257
aI139
aI99
aI101
aI110
aI130
aI82
aI126
aI135
aI142
aI136
aI145
aI168
aI121
aI142
aI165
aI141
aI197
aI222
aI138
aI92
aI255
aI163
aI238
aI190
asI114
(lp57
I226
aI148
aI89
aI86
aI149
aI137
aI84
aI110
aI81
aI139
aI233
aI149
aI155
aI150
aI204
aI243
aI125
aI270
aI283
aI109
aI117
aI144
aI174
aI164
aI140
aI192
aI82
aI133
aI162
aI110
aI90
aI102
aI90
aI141
aI110
aI128
aI125
aI121
aI192
aI166
aI124
aI91
aI116
aI174
aI202
aI116
aI96
aI145
aI77
aI165
aI117
aI174
aI163
aI91
aI100
aI109
aI134
aI86
aI106
aI176
aI185
aI192
aI216
asI118
(lp58
I169
aI276
aI185
aI187
aI170
aI90
aI195
aI107
aI179
aI147
aI151
aI181
aI109
aI161
aI246
aI114
aI183
aI125
aI178
aI205
aI164
aI166
aI226
aI82
aI117
aI167
aI88
aI197
aI156
aI176
aI112
aI205
aI143
aI144
aI277
aI116
aI132
aI201
aI109
aI160
aI149
aI141
aI96
aI119
aI82
aI237
aI108
aI113
aI123
aI86
aI118
aI220
aI153
aI122
aI175
aI118
aI141
aI356
aI174
aI92
aI175
aI117
aI151
aI99
aI197
aI86
aI163
aI87
asI119
(lp59
I95
aI86
aI101
aI127
aI115
aI120
aI78
aI85
aI85
aI130
aI102
aI96
aI89
aI92
aI83
aI155
aI86
aI119
aI92
aI131
aI123
aI117
aI284
aI156
aI167
aI83
aI88
aI117
aI199
aI231
aI94
aI111
aI149
aI79
aI76
aI94
aI253
aI180
aI140
aI142
aI138
aI98
aI67
aI184
aI140
aI93
aI83
aI193
aI75
aI94
aI177
aI86
aI151
aI95
aI221
aI115
aI142
aI203
aI103
aI110
aI170
aI136
aI201
aI89
aI195
aI107
aI189
aI333
aI66
aI134
aI230
aI198
aI226
aI125
aI126
aI111
aI119
aI110
aI188
aI163
aI107
aI209
aI93
aI152
aI110
aI120
aI159
aI229
aI103
aI114
aI155
aI121
aI216
asI120
(lp60
I180
aI168
aI169
aI141
aI143
aI72
aI141
aI117
aI130
aI216
aI121
aI81
aI131
aI138
aI105
aI186
aI87
aI209
aI168
aI94
aI109
aI175
aI140
aI96
aI129
aI156
aI270
aI225
aI165
aI138
aI95
aI259
aI233
aI212
aI84
aI184
aI247
aI261
aI177
aI154
aI184
aI104
aI119
aI205
aI113
aI142
aI98
aI117
aI135
aI144
aI133
aI112
aI169
aI90
aI82
aI120
aI118
aI174
aI157
aI116
aI153
aI128
aI162
aI260
aI117
aI188
aI117
aI79
aI218
aI153
aI125
aI132
asI125
(lp61
I113
aI118
aI121
aI184
aI193
aI143
aI238
aI183
aI156
aI169
aI256
aI182
aI159
aI109
aI81
aI98
aI167
aI199
aI116
aI98
aI175
aI114
aI113
aI121
aI169
aI122
aI113
aI181
aI136
aI241
aI145
aI99
aI215
aI197
aI136
aI163
aI99
aI297
aI227
aI117
aI146
aI125
aI104
aI192
aI160
aI315
aI130
aI192
aI138
aI141
aI94
aI180
aI191
aI128
aI134
aI76
asI126
(lp62
I134
aI142
aI106
aI134
aI112
aI246
aI123
aI142
aI114
aI155
aI192
aI87
aI171
aI191
aI202
aI173
aI226
aI167
aI217
aI182
aI106
aI180
aI146
aI164
aI152
aI156
aI135
aI165
aI134
aI123
aI154
aI125
aI124
aI148
aI199
aI118
aI207
aI196
aI83
aI112
aI165
aI163
aI222
aI158
aI165
aI147
aI112
aI139
aI121
aI162
aI158
aI83
aI95
aI89
aI78
aI180
aI176
aI194
aI123
aI140
aI171
aI105
aI113
aI118
asI127
(lp63
I241
aI248
aI210
aI304
aI193
aI155
aI132
aI216
aI215
aI177
aI133
aI124
aI355
aI147
aI144
aI128
aI151
aI157
aI104
aI210
aI66
aI165
aI162
aI115
aI223
aI165
aI162
aI177
aI198
aI194
aI66
aI161
aI149
aI179
aI159
aI181
aI149
aI160
aI95
aI163
aI113
aI169
aI190
aI263
aI242
aI267
aI130
aI139
aI115
aI142
aI122
aI185
aI160
aI130
aI101
aI90
aI116
aI108
aI105
aI103
aI214
aI101
aI162
aI129
asI128
(lp64
I156
aI220
aI150
aI168
aI111
aI125
aI92
aI105
aI125
aI166
aI134
aI243
aI129
aI104
aI149
aI142
aI138
aI99
aI135
aI124
aI90
aI152
aI184
aI107
aI158
aI91
aI207
aI258
aI280
aI78
aI160
aI148
aI194
aI170
aI213
aI100
aI146
aI124
aI209
aI134
aI207
aI135
aI94
aI132
aI132
aI145
aI97
aI134
aI190
aI168
aI109
aI186
aI260
aI97
aI125
aI116
aI225
aI109
aI86
aI117
aI118
aI125
aI82
asI131
(lp65
I85
aI87
aI90
aI264
aI84
aI91
aI98
aI142
aI110
aI144
aI107
aI74
aI76
aI80
aI102
aI145
aI96
aI133
aI245
aI172
aI89
aI175
aI119
aI202
aI126
aI229
aI109
aI87
aI140
aI151
aI151
aI156
aI180
aI102
aI176
aI151
aI126
aI144
aI141
aI158
aI116
aI141
aI157
aI131
aI146
aI127
aI152
aI149
aI219
aI211
aI140
aI96
aI119
aI114
aI159
aI91
aI107
aI89
aI109
aI90
aI77
aI91
aI83
aI87
aI83
aI235
aI102
aI182
aI152
aI91
aI123
aI151
aI108
aI81
aI117
aI175
aI193
aI122
aI120
aI171
aI132
aI74
aI152
aI138
aI154
aI149
aI116
aI176
aI231
aI149
asI132
(lp66
I105
aI94
aI111
aI82
aI185
aI138
aI151
aI127
aI93
aI76
aI173
aI94
aI134
aI194
aI77
aI88
aI144
aI158
aI90
aI96
aI80
aI81
aI181
aI66
aI93
aI148
aI109
aI171
aI137
aI174
aI106
aI118
aI186
aI167
aI92
aI221
aI83
aI102
aI94
aI131
aI143
aI147
aI98
aI92
aI178
aI149
aI139
aI128
aI195
aI126
aI264
aI158
aI222
aI141
aI172
aI182
aI228
aI77
aI99
aI89
aI86
aI188
aI92
aI160
aI198
aI173
aI139
aI176
aI154
aI108
aI221
aI89
aI99
aI137
aI98
aI90
aI82
aI112
aI91
aI135
asI136
(lp67
I94
aI150
aI186
aI197
aI184
aI185
aI136
aI110
aI83
aI203
aI110
aI121
aI123
aI126
aI100
aI142
aI121
aI121
aI154
aI156
aI163
aI165
aI83
aI72
aI133
aI151
aI159
aI126
aI96
aI106
aI85
aI173
aI148
aI106
aI155
aI108
aI218
aI78
aI91
aI141
aI135
aI124
aI115
aI61
aI96
aI221
aI227
aI232
aI211
aI97
aI160
aI224
aI134
aI168
aI103
aI172
aI142
aI85
aI129
aI125
aI115
aI121
aI117
aI108
aI130
aI94
aI178
aI145
asI137
(lp68
I189
aI115
aI96
aI145
aI185
aI89
aI123
aI81
aI158
aI239
aI183
aI101
aI163
aI145
aI201
aI98
aI189
aI118
aI118
aI145
aI185
aI89
aI123
aI206
aI176
aI154
aI148
aI135
aI122
aI207
aI171
aI79
aI278
aI181
aI213
aI171
aI131
aI131
aI257
aI83
aI141
aI134
aI161
aI230
aI298
aI184
aI126
aI177
aI107
aI166
aI142
aI136
aI124
aI173
aI144
aI154
aI113
aI325
aI141
aI104
aI145
aI95
aI194
aI69
aI91
aI111
aI82
aI127
asI138
(lp69
I159
aI117
aI117
aI123
aI139
aI96
aI85
aI121
aI127
aI124
aI152
aI126
aI117
aI184
aI182
aI144
aI146
aI145
aI192
aI198
aI103
aI155
aI80
aI133
aI114
aI139
aI87
aI172
aI83
aI112
aI79
aI171
aI95
aI123
aI151
aI145
aI168
aI159
aI131
aI196
aI195
aI121
aI114
aI73
aI135
aI159
aI117
aI66
aI111
aI105
aI109
aI90
aI164
aI100
aI117
aI137
aI108
aI141
aI153
aI84
aI107
aI78
aI131
aI302
aI140
aI128
aI107
aI151
aI114
aI130
aI97
aI110
aI156
aI71
aI189
aI142
aI170
aI144
aI107
aI121
aI132
aI147
aI166
asI141
(lp70
I111
aI150
aI104
aI119
aI148
aI109
aI139
aI81
aI162
aI99
aI194
aI175
aI141
aI237
aI153
aI220
aI115
aI142
aI87
aI77
aI137
aI66
aI138
aI154
aI258
aI95
aI100
aI146
aI108
aI110
aI129
aI128
aI135
aI210
aI121
aI114
aI107
aI110
aI78
aI224
aI157
aI139
aI118
aI126
aI79
aI115
aI131
aI118
aI80
aI93
aI231
aI230
aI148
aI174
aI86
aI133
aI104
aI176
aI107
aI211
aI193
aI120
aI90
aI184
aI103
aI71
aI109
aI179
aI137
aI135
aI173
aI102
aI140
aI120
aI150
aI123
aI92
aI194
aI121
aI89
aI84
asI142
(lp71
I201
aI134
aI120
aI107
aI82
aI225
aI227
aI209
aI154
aI266
aI189
aI174
aI180
aI113
aI104
aI100
aI120
aI116
aI127
aI244
aI90
aI272
aI164
aI207
aI134
aI98
aI207
aI208
aI210
aI82
aI162
aI113
aI129
aI163
aI129
aI112
aI168
aI130
aI199
aI100
aI103
aI148
aI90
aI194
aI106
aI192
aI82
aI211
aI126
aI177
aI176
aI131
aI129
aI194
aI192
aI212
aI91
aI180
aI175
aI205
aI122
aI137
aI123
aI120
aI150
aI175
asI145
(lp72
I241
aI344
aI111
aI225
aI261
aI260
aI147
aI119
aI230
aI231
aI145
aI102
aI158
aI125
aI115
aI111
aI123
aI245
aI86
aI121
aI151
aI142
aI129
aI134
aI210
aI93
aI79
aI74
aI157
aI141
aI163
aI97
aI127
aI149
aI155
aI212
aI101
aI220
aI162
aI80
aI138
aI78
aI74
aI98
aI100
aI175
aI138
aI184
aI128
aI141
aI135
aI176
aI116
aI180
aI125
aI124
aI245
aI138
aI122
aI171
aI180
aI249
aI234
aI150
aI232
aI150
aI241
aI147
aI164
aI100
asI146
(lp73
I155
aI187
aI130
aI89
aI88
aI70
aI224
aI138
aI171
aI171
aI120
aI153
aI88
aI194
aI116
aI104
aI120
aI156
aI171
aI116
aI94
aI194
aI156
aI136
aI308
aI88
aI150
aI193
aI171
aI282
aI160
aI150
aI166
aI179
aI97
aI114
aI185
aI108
aI96
aI110
aI165
aI138
aI208
aI128
aI104
aI157
aI94
aI146
aI104
aI197
aI106
aI211
aI91
aI158
aI149
aI169
aI76
aI109
aI83
aI123
aI104
aI122
aI152
aI138
aI113
aI158
aI157
aI125
aI165
aI198
aI115
aI77
aI191
aI201
aI167
aI115
asI147
(lp74
I188
aI285
aI266
aI115
aI92
aI133
aI184
aI232
aI73
aI169
aI132
aI167
aI146
aI134
aI161
aI180
aI117
aI127
aI298
aI130
aI125
aI161
aI83
aI97
aI386
aI295
aI69
aI290
aI248
aI135
aI185
aI109
aI110
aI132
aI176
aI72
aI123
aI127
aI82
aI175
aI250
aI155
aI270
aI181
aI240
aI218
aI148
aI183
aI165
aI188
aI159
aI95
aI272
aI241
aI172
aI159
aI146
aI116
aI102
aI173
asI148
(lp75
I161
aI121
aI105
aI189
aI184
aI208
aI113
aI83
aI121
aI115
aI153
aI141
aI137
aI111
aI111
aI156
aI151
aI119
aI90
aI93
aI131
aI260
aI107
aI118
aI141
aI154
aI132
aI143
aI112
aI168
aI133
aI138
aI192
aI106
aI127
aI397
aI234
aI102
aI134
aI128
aI186
aI94
aI299
aI170
aI185
aI204
aI123
aI118
aI74
aI214
aI141
aI139
aI180
aI116
aI172
aI109
aI112
aI188
aI115
aI182
aI112
aI216
aI135
aI116
asI154
(lp76
I208
aI153
aI120
aI114
aI139
aI81
aI122
aI104
aI143
aI92
aI104
aI92
aI153
aI320
aI229
aI139
aI103
aI114
aI79
aI143
aI122
aI141
aI189
aI127
aI91
aI118
aI103
aI244
aI129
aI275
aI170
aI229
aI181
aI180
aI201
aI235
aI284
aI122
aI166
aI129
aI107
aI153
aI139
aI166
aI108
aI208
aI85
aI105
aI76
aI101
aI152
aI177
aI105
aI136
aI142
aI86
aI138
asI155
(lp77
I166
aI171
aI178
aI174
aI174
aI242
aI122
aI102
aI79
aI197
aI121
aI107
aI143
aI141
aI190
aI150
aI137
aI112
aI104
aI182
aI149
aI364
aI146
aI305
aI148
aI161
aI188
aI208
aI124
aI132
aI245
aI152
aI235
aI170
aI179
aI104
aI89
aI132
aI195
aI102
aI153
aI133
aI134
aI107
aI121
aI188
aI88
aI76
aI76
aI78
aI113
aI98
aI167
aI130
aI98
aI114
aI123
aI143
aI157
aI87
aI89
aI103
aI105
aI80
aI105
aI127
aI87
aI78
aI187
aI102
aI271
aI186
asI156
(lp78
I126
aI128
aI156
aI147
aI105
aI160
aI221
aI170
aI105
aI123
aI149
aI80
aI91
aI158
aI211
aI187
aI126
aI154
aI214
aI106
aI224
aI121
aI121
aI80
aI119
aI195
aI196
aI199
aI124
aI100
aI174
aI110
aI160
aI99
aI145
aI92
aI107
aI138
aI272
aI160
aI147
aI183
aI171
aI202
aI154
aI114
aI104
aI149
aI114
aI237
aI261
aI125
aI188
aI210
aI87
aI106
aI177
aI152
aI127
aI147
aI91
aI96
aI124
aI117
aI82
asI157
(lp79
I161
aI158
aI188
aI127
aI151
aI222
aI104
aI161
aI92
aI110
aI119
aI73
aI124
aI159
aI156
aI138
aI168
aI89
aI110
aI160
aI119
aI138
aI137
aI111
aI96
aI61
aI92
aI176
aI108
aI214
aI98
aI135
aI214
aI206
aI121
aI122
aI114
aI118
aI160
aI119
aI152
aI197
aI114
aI169
aI67
aI152
aI80
aI143
aI79
aI143
aI96
aI114
aI121
aI142
aI147
aI234
aI169
aI97
aI93
aI84
aI192
aI142
aI132
aI147
aI142
aI62
aI111
aI164
aI293
asI158
(lp80
I98
aI319
aI302
aI124
aI168
aI143
aI94
aI117
aI189
aI201
aI113
aI152
aI197
aI190
aI185
aI130
aI149
aI124
aI194
aI183
aI149
aI113
aI245
aI131
aI105
aI151
aI136
aI81
aI188
aI140
aI172
aI120
aI169
aI151
aI306
aI164
aI85
aI88
aI123
aI175
aI148
aI246
aI134
aI96
aI96
aI93
aI139
aI239
aI172
aI143
aI125
aI266
aI189
aI248
asI159
(lp81
I330
aI343
aI220
aI310
aI194
aI207
aI160
aI142
aI329
aI162
aI249
aI142
aI141
aI262
aI162
aI154
aI99
aI185
aI215
aI250
aI123
aI100
aI116
aI154
aI239
aI117
aI88
aI217
aI95
aI213
aI160
aI241
aI140
aI98
aI200
aI118
aI212
aI245
aI123
aI109
aI96
aI191
aI202
aI94
aI190
aI204
aI176
asI160
(lp82
I147
aI195
aI110
aI199
aI141
aI435
aI219
aI159
aI138
aI164
aI99
aI229
aI128
aI160
aI174
aI161
aI137
aI122
aI162
aI171
aI182
aI189
aI105
aI207
aI199
aI240
aI80
aI192
aI256
aI209
aI107
aI149
aI208
aI236
aI180
aI133
aI266
aI139
aI225
aI231
aI169
aI175
aI93
aI188
aI148
aI146
asI165
(lp83
I115
aI142
aI188
aI148
aI103
aI170
aI115
aI150
aI290
aI159
aI173
aI133
aI207
aI101
aI175
aI140
aI150
aI137
aI84
aI252
aI92
aI90
aI129
aI201
aI126
aI166
aI134
aI89
aI174
aI152
aI87
aI176
aI109
aI129
aI135
aI173
aI121
aI135
aI94
aI86
aI152
aI89
aI92
aI76
aI131
aI190
aI161
aI141
aI191
aI263
aI344
aI258
aI180
asI166
(lp84
I141
aI170
aI250
aI221
aI211
aI94
aI100
aI154
aI96
aI311
aI109
aI151
aI145
aI80
aI137
aI365
aI232
aI175
aI199
aI180
aI308
aI91
aI159
aI208
aI257
aI108
aI194
aI217
aI92
aI199
aI199
aI100
aI234
aI233
aI259
aI234
aI220
aI116
aI155
aI142
aI140
aI171
aI121
aI95
aI138
aI91
aI150
aI86
aI76
aI139
aI132
aI88
aI135
aI110
aI118
aI104
aI144
aI226
aI114
aI228
aI100
aI402
aI98
aI115
aI204
aI118
asI167
(lp85
I80
aI95
aI165
aI175
aI124
aI128
aI153
aI142
aI177
aI211
aI124
aI168
aI172
aI101
aI179
aI150
aI216
aI192
aI136
aI211
aI158
aI181
aI189
aI118
aI71
aI84
aI121
aI136
aI161
aI141
aI142
aI260
aI237
aI245
aI114
aI205
aI165
aI224
aI130
aI163
aI155
aI216
aI152
aI139
aI82
aI112
aI136
aI145
aI112
aI312
aI197
aI223
aI152
aI229
aI142
aI197
aI111
aI73
aI343
aI116
aI242
aI79
aI111
asI171
(lp86
I185
aI137
aI145
aI118
aI87
aI165
aI134
aI418
aI271
aI101
aI179
aI85
aI106
aI223
aI136
aI123
aI153
aI136
aI272
aI106
aI84
aI183
aI147
aI207
aI75
aI205
aI116
aI86
aI143
aI152
aI135
aI101
aI152
aI135
aI178
aI66
aI179
aI194
aI123
aI140
aI168
aI300
aI227
aI344
aI227
aI146
aI133
aI106
aI166
aI128
aI136
aI162
aI102
aI134
asI172
(lp87
I222
aI137
aI89
aI185
aI138
aI123
aI159
aI190
aI149
aI356
aI117
aI131
aI157
aI188
aI226
aI193
aI247
aI282
aI192
aI118
aI204
aI177
aI135
aI155
aI101
aI118
aI152
aI264
aI157
aI133
aI214
aI97
aI155
aI152
aI223
aI180
aI138
aI117
aI181
aI157
aI304
aI143
aI168
aI135
aI137
aI97
aI158
aI264
aI138
aI134
aI135
aI247
aI236
aI125
aI107
asI174
(lp88
I232
aI179
aI231
aI89
aI115
aI204
aI146
aI160
aI92
aI159
aI154
aI117
aI176
aI206
aI221
aI206
aI78
aI166
aI101
aI107
aI209
aI124
aI248
aI150
aI121
aI151
aI200
aI168
aI76
aI113
aI154
aI204
aI189
aI349
aI82
aI108
aI166
aI190
aI77
aI138
aI170
aI109
aI126
aI139
aI226
aI285
aI158
aI135
aI162
aI231
aI185
aI139
aI184
aI217
aI279
aI167
aI164
aI99
asI178
(lp89
I149
aI148
aI189
aI174
aI117
aI138
aI107
aI111
aI121
aI174
aI92
aI258
aI145
aI145
aI129
aI150
aI143
aI167
aI134
aI264
aI149
aI209
aI230
aI194
aI118
aI108
aI180
aI172
aI112
aI185
aI166
aI251
aI166
aI135
aI301
aI175
aI230
aI158
aI200
aI227
aI148
aI174
aI133
aI163
aI115
aI214
aI147
aI226
aI92
aI165
aI248
aI210
aI121
aI225
aI234
aI112
aI158
aI231
aI239
aI171
aI163
asI180
(lp90
I115
aI128
aI190
aI204
aI232
aI158
aI93
aI134
aI168
aI135
aI212
aI259
aI115
aI146
aI250
aI171
aI203
aI176
aI145
aI100
aI142
aI111
aI102
aI270
aI148
aI104
aI156
aI201
aI134
aI229
aI225
aI142
aI332
aI108
aI124
aI158
aI205
aI158
aI101
aI286
aI271
aI278
aI190
aI134
aI220
aI189
aI202
aI196
aI139
aI203
asI181
(lp91
I140
aI340
aI184
aI194
aI203
aI93
aI173
aI105
aI107
aI118
aI128
aI110
aI239
aI119
aI144
aI203
aI151
aI127
aI98
aI153
aI125
aI161
aI185
aI158
aI246
aI148
aI178
aI102
aI149
aI227
aI160
aI123
aI106
aI119
aI119
aI168
aI279
aI293
aI339
aI276
aI103
aI189
aI160
aI161
aI237
aI143
aI228
aI145
aI169
aI161
aI141
aI114
aI201
aI142
aI169
asI183
(lp92
I124
aI118
aI136
aI112
aI118
aI126
aI107
aI204
aI279
aI159
aI167
aI113
aI212
aI95
aI85
aI112
aI167
aI143
aI123
aI146
aI192
aI81
aI116
aI208
aI126
aI175
aI183
aI230
aI121
aI213
aI146
aI131
aI109
aI188
aI150
aI123
aI122
aI216
aI365
aI90
aI128
aI139
aI149
aI135
aI202
aI131
aI122
aI247
aI221
aI285
aI158
aI92
aI132
aI281
aI157
aI150
aI112
aI251
aI201
aI123
asI184
(lp93
I292
aI169
aI159
aI170
aI70
aI124
aI154
aI197
aI136
aI127
aI192
aI158
aI212
aI170
aI145
aI241
aI114
aI126
aI135
aI482
aI170
aI176
aI125
aI287
aI126
aI235
aI152
aI245
aI206
aI333
aI135
aI259
aI135
aI139
aI335
aI177
aI188
aI202
aI195
aI199
aI114
aI222
aI164
aI278
aI266
aI193
aI154
aI269
aI226
aI324
asI185
(lp94
I152
aI173
aI144
aI90
aI104
aI150
aI120
aI83
aI213
aI258
aI113
aI280
aI187
aI175
aI212
aI152
aI113
aI136
aI87
aI108
aI154
aI392
aI183
aI263
aI248
aI201
aI309
aI139
aI94
aI162
aI215
aI93
aI151
aI131
aI166
aI121
aI161
aI135
aI184
aI111
aI119
aI135
aI114
aI192
aI132
aI262
aI159
aI121
aI105
aI188
aI246
aI147
aI108
aI141
aI247
aI141
aI129
asI189
(lp95
I151
aI154
aI182
aI289
aI224
aI139
aI219
aI174
aI175
aI147
aI121
aI188
aI136
aI112
aI156
aI88
aI114
aI181
aI228
aI220
aI189
aI212
aI131
aI134
aI158
aI145
aI214
aI169
aI111
aI99
aI161
aI202
aI134
aI255
aI186
aI95
aI89
aI116
aI135
aI93
aI132
aI101
aI163
aI93
aI96
aI174
aI104
aI140
aI121
aI198
aI171
aI228
aI114
aI95
aI90
aI158
aI156
aI113
aI157
aI88
aI149
aI190
aI249
aI123
aI116
aI179
aI127
aI92
aI230
aI188
aI104
aI175
aI200
asI191
(lp96
I238
aI92
aI208
aI87
aI218
aI185
aI145
aI88
aI205
aI153
aI337
aI157
aI83
aI126
aI116
aI136
aI116
aI169
aI267
aI233
aI203
aI193
aI346
aI133
aI104
aI292
aI97
aI109
aI172
aI173
aI191
aI111
aI209
aI170
aI157
aI141
aI149
aI123
aI117
aI225
aI164
aI103
aI203
aI251
aI297
aI205
aI216
aI88
aI119
aI126
aI200
aI107
aI151
aI136
aI289
aI169
aI188
aI103
aI166
aI133
aI126
aI188
aI230
aI376
aI142
asI192
(lp97
I115
aI227
aI163
aI198
aI152
aI191
aI111
aI120
aI165
aI231
aI119
aI196
aI117
aI128
aI173
aI320
aI138
aI157
aI234
aI242
aI94
aI104
aI265
aI226
aI164
aI94
aI122
aI183
aI170
aI127
aI243
aI146
aI226
aI293
aI256
aI171
aI257
aI160
aI139
aI127
aI110
aI89
aI141
aI127
aI224
aI212
aI116
aI105
aI152
aI121
aI129
aI247
aI121
aI124
aI137
aI105
aI106
aI133
aI107
aI148
aI126
aI123
aI138
aI140
aI125
aI144
asI196
(lp98
I150
aI173
aI206
aI192
aI170
aI257
aI145
aI117
aI213
aI150
aI110
aI199
aI199
aI199
aI160
aI159
aI170
aI192
aI148
aI226
aI176
aI216
aI194
aI133
aI195
aI132
aI153
aI227
aI180
aI210
aI209
aI222
aI184
aI151
aI157
aI155
aI175
aI196
aI89
aI343
aI216
aI187
aI151
aI237
aI160
aI304
aI184
aI120
aI157
aI91
aI280
aI239
aI108
aI130
aI140
aI191
aI114
asI197
(lp99
I121
aI124
aI200
aI134
aI168
aI190
aI145
aI129
aI145
aI127
aI173
aI155
aI174
aI149
aI160
aI185
aI124
aI287
aI278
aI96
aI260
aI134
aI234
aI163
aI179
aI153
aI139
aI227
aI132
aI130
aI137
aI250
aI143
aI189
aI245
aI235
aI149
aI169
aI107
aI179
aI291
aI249
aI105
aI155
aI111
aI223
aI244
aI232
aI189
aI238
aI179
aI150
aI106
aI150
aI175
asI199
(lp100
I161
aI149
aI139
aI119
aI231
aI167
aI101
aI157
aI142
aI137
aI131
aI294
aI306
aI189
aI177
aI220
aI165
aI226
aI144
aI196
aI171
aI124
aI179
aI279
aI184
aI84
aI324
aI160
aI133
aI189
aI103
aI112
aI243
aI201
aI129
aI164
aI180
aI159
aI139
aI161
aI197
aI181
aI132
aI243
aI177
aI344
aI162
aI111
aI286
aI248
aI181
aI116
aI145
aI154
aI223
aI171
aI161
aI174
aI256
aI96
as.