(dp0
I2
I6435
sI3
I5730
sI6
I6117
sI7
I5137
sI9
I5343
sI11
I5805
sI13
I6182
sI15
I5043
sI18
I5025
sI19
I5429
sI21
I5681
sI23
I5148
sI24
I4637
sI25
I5097
sI28
I5708
sI31
I5178
sI33
I5666
sI35
I5004
sI37
I5413
sI39
I3648
sI41
I5069
sI44
I5514
sI47
I6086
sI48
I5477
sI49
I5599
sI51
I6502
sI53
I7347
sI55
I7293
sI57
I8288
sI59
I7536
sI61
I9920
sI63
I8084
sI65
I11214
sI70
I9728
sI71
I13348
sI72
I10937
sI73
I9435
sI79
I7139
sI80
I6931
sI81
I7607
sI82
I6320
sI87
I7736
sI88
I6948
sI89
I9335
sI90
I8321
sI95
I8758
sI96
I8285
sI97
I7145
sI98
I8776
sI102
I9593
sI104
I9139
sI105
I8350
sI106
I8007
sI111
I10514
sI112
I7878
sI113
I9279
sI114
I9008
sI118
I10494
sI119
I12622
sI120
I10770
sI125
I8709
sI126
I9520
sI127
I10429
sI128
I9207
sI131
I12015
sI132
I10605
sI136
I9328
sI137
I10315
sI138
I10929
sI141
I10896
sI142
I10210
sI145
I10909
sI146
I10912
sI147
I10142
sI148
I9519
sI154
I8372
sI155
I10424
sI156
I9518
sI157
I9407
sI158
I8698
sI159
I8517
sI160
I8102
sI165
I7998
sI166
I10889
sI167
I10120
sI171
I8560
sI172
I9337
sI174
I9531
sI178
I10410
sI180
I8792
sI181
I9253
sI183
I9547
sI184
I9802
sI185
I9349
sI189
I11240
sI191
I11250
sI192
I10614
sI196
I10241
sI197
I9615
sI199
I10727
s.