(dp0
I1
I4965
sI4
I3976
sI5
I8025
sI8
I4846
sI10
I3986
sI12
I6101
sI14
I6694
sI16
I6272
sI17
I6308
sI20
I5881
sI22
I5025
sI26
I7278
sI27
I6449
sI29
I5562
sI30
I5938
sI32
I5572
sI34
I5384
sI36
I4993
sI38
I5657
sI40
I5690
sI42
I5734
sI43
I6606
sI45
I6797
sI46
I6108
sI50
I5943
sI52
I6615
sI54
I9223
sI56
I7859
sI58
I8335
sI60
I8790
sI62
I9596
sI64
I10449
sI66
I13075
sI67
I10714
sI68
I9618
sI69
I8776
sI74
I8767
sI75
I8026
sI76
I9178
sI77
I7618
sI78
I11651
sI83
I8791
sI84
I10012
sI85
I7270
sI86
I7823
sI91
I7822
sI92
I8056
sI93
I8648
sI94
I8424
sI99
I7931
sI100
I8739
sI101
I10765
sI103
I9964
sI107
I11694
sI108
I8895
sI109
I10230
sI110
I10342
sI115
I12120
sI116
I10053
sI117
I11074
sI121
I9022
sI122
I10287
sI123
I12973
sI124
I9653
sI129
I11524
sI130
I10304
sI133
I9038
sI134
I10183
sI135
I10077
sI139
I10523
sI140
I9652
sI143
I9858
sI144
I8309
sI149
I9268
sI150
I8592
sI151
I8564
sI152
I9024
sI153
I8558
sI161
I8419
sI162
I7983
sI163
I8702
sI164
I9266
sI168
I10117
sI169
I8603
sI170
I9139
sI173
I7992
sI175
I9519
sI176
I10398
sI177
I8207
sI179
I7164
sI182
I9806
sI186
I8330
sI187
I9985
sI188
I10606
sI190
I8587
sI193
I10036
sI194
I10905
sI195
I8872
sI198
I10857
sI200
I9261
s.