(dp0
I1
(lp1
F2.141
aF4.936
aF5.284
aF3.311
aF2.001
aF2.524
aF5.223
aF3.106
aF2.491
aF4.044
aF2.204
aF7.937
aF4.844
aF4.792
aF0.287
aF3.664
aF9.625
aF5.191
aF4.558
aF9.706
aF3.129
aF6.33
aF1.816
aF1.431
aF5.638
aF3.033
aF2.681
aF7.637
aF1.82
aF2.523
aF2.93
aF4.173
aF2.062
aF4.334
aF5.299
aF16.231
asI4
(lp2
F1.85
aF4.089
aF5.647
aF2.906
aF6.066
aF9.042
aF5.986
aF6.963
aF8.235
aF4.461
aF2.416
aF3.567
aF5.542
aF4.779
aF3.614
aF3.238
aF6.483
aF5.175
aF2.975
aF3.643
aF1.113
aF2.738
aF2.857
aF3.565
aF5.912
aF6.681
aF5.036
aF4.818
aF5.147
asI5
(lp3
F6.567
aF2.065
aF0.192
aF4.36
aF5.018
aF5.053
aF5.367
aF3.527
aF4.511
aF1.969
aF3.505
aF4.734
aF3.488
aF2.59
aF1.881
aF2.517
aF4.334
aF6.043
aF6.565
aF11.68
aF4.261
aF2.361
aF6.018
aF4.487
aF4.008
aF2.038
aF3.783
aF0.998
aF2.631
aF0.854
aF6.939
aF4.543
aF9.406
aF6.681
aF0.817
aF4.257
aF5.415
aF2.719
aF1.252
aF5.366
aF3.589
aF3.777
aF4.57
aF1.829
aF5.017
aF4.254
aF3.81
aF6.221
aF3.881
aF5.235
aF6.218
aF5.279
aF4.964
aF4.549
aF5.077
aF4.108
asI8
(lp4
F1.63
aF1.542
aF4.489
aF10.4
aF1.28
aF1.976
aF3.407
aF2.85
aF3.463
aF3.402
aF1.104
aF1.108
aF0.195
aF5.691
aF1.916
aF4.147
aF5.219
aF1.011
aF5.554
aF6.157
aF2.718
aF0.921
aF0.182
aF4.304
aF3.2
aF3.332
aF0.08
aF1.603
aF1.202
aF1.696
aF1.665
aF4.117
aF2.648
aF3.216
aF2.506
aF1.794
aF2.514
aF1.766
aF0.418
aF5.512
aF2.729
aF2.66
aF0.251
aF1.7
aF4.221
aF5.665
aF4.443
asI10
(lp5
F5.474
aF8.313
aF8.132
aF2.84
aF3.137
aF2.739
aF2.432
aF2.12
aF3.676
aF5.257
aF4.235
aF4.238
aF2.922
aF6.377
aF7.847
aF15.089
aF5.337
aF0.972
aF7.312
aF5.011
aF6.471
aF8.417
aF3.785
aF2.943
aF3.586
aF8.841
asI12
(lp6
F5.588
aF9.374
aF7.503
aF6.885
aF4.008
aF0.795
aF1.979
aF10.601
aF5.302
aF1.529
aF4.584
aF2.192
aF2.88
aF1.746
aF1.184
aF5.492
aF7.575
aF5.101
aF1.018
aF4.177
aF2.377
aF10.406
aF4.454
aF1.8
aF4.317
aF2.776
aF2.511
aF2.334
aF0.489
aF1.047
aF2.466
aF2.791
aF6.886
aF2.699
aF2.618
aF2.369
aF5.683
aF4.814
aF2.577
aF0.87
aF1.815
aF4.479
aF2.784
aF3.369
aF2.129
aF0.407
aF3.558
aF8.0
aF3.637
asI14
(lp7
F3.756
aF6.062
aF8.399
aF3.685
aF5.29
aF6.886
aF7.335
aF6.384
aF7.881
aF5.479
aF4.066
aF5.243
aF6.364
aF2.191
aF3.473
aF9.565
aF8.053
aF8.241
aF4.98
aF2.178
aF6.832
aF7.753
aF6.593
aF4.925
aF3.678
aF5.852
aF4.672
aF4.404
aF6.498
aF7.726
aF5.301
aF6.952
aF4.116
aF5.657
aF8.111
aF3.57
aF5.217
aF5.055
aF4.193
aF4.254
aF1.86
asI16
(lp8
F15.013
aF7.378
aF8.008
aF9.681
aF2.453
aF4.256
aF7.239
aF4.883
aF5.091
aF2.718
aF9.347
aF6.18
aF5.203
aF3.61
aF4.591
aF4.457
aF1.829
aF5.365
aF1.754
aF1.867
aF1.758
aF3.909
aF3.052
aF5.465
aF1.24
aF4.581
aF3.121
aF7.415
aF5.51
aF9.999
aF11.876
aF4.686
aF9.421
aF11.598
aF6.092
aF4.214
aF3.746
aF2.873
aF7.405
aF6.923
aF3.35
asI17
(lp9
F6.558
aF7.703
aF6.173
aF1.741
aF5.475
aF3.708
aF5.861
aF3.593
aF6.223
aF3.343
aF5.389
aF6.17
aF4.948
aF3.636
aF4.106
aF6.091
aF6.503
aF3.178
aF2.397
aF7.571
aF9.033
aF6.721
aF3.645
aF3.519
aF5.487
aF9.921
aF7.208
aF6.332
aF6.596
aF7.581
aF2.888
aF6.488
aF6.438
aF1.994
aF5.743
aF7.832
aF6.135
asI20
(lp10
F7.398
aF4.334
aF8.347
aF7.047
aF6.967
aF3.249
aF6.878
aF6.62
aF4.442
aF6.795
aF4.74
aF4.436
aF8.676
aF6.189
aF6.295
aF7.573
aF5.133
aF3.59
aF2.654
aF2.57
aF2.003
aF10.454
aF10.861
aF3.585
aF6.886
aF7.91
aF10.381
aF6.119
aF10.597
aF5.2
aF7.424
aF6.05
aF5.413
aF6.79
aF6.208
asI22
(lp11
F3.109
aF4.248
aF6.411
aF6.932
aF10.333
aF3.993
aF6.155
aF3.345
aF6.137
aF9.165
aF6.253
aF6.26
aF5.107
aF4.608
aF5.331
aF3.416
aF5.687
aF3.067
aF5.58
aF7.064
aF4.439
aF10.172
aF4.266
aF7.764
aF4.342
aF2.086
aF9.113
aF5.855
asI26
(lp12
F5.499
aF3.815
aF9.961
aF5.668
aF5.712
aF6.453
aF6.891
aF5.682
aF3.603
aF3.361
aF8.154
aF10.07
aF10.469
aF6.88
aF7.107
aF6.308
aF4.239
aF5.671
aF4.543
aF3.365
aF6.085
aF3.495
aF12.445
aF7.445
aF8.374
aF5.841
aF8.536
aF2.154
aF8.987
aF2.945
aF3.04
aF9.486
aF9.046
aF5.039
aF7.101
aF6.001
aF4.42
aF5.905
aF3.602
asI27
(lp13
F5.236
aF3.738
aF1.282
aF3.771
aF4.643
aF7.265
aF6.597
aF3.822
aF7.355
aF3.664
aF7.616
aF4.149
aF8.975
aF6.91
aF10.252
aF3.858
aF8.035
aF3.582
aF2.635
aF5.4
aF6.897
aF6.382
aF5.289
aF5.149
aF6.991
aF7.231
aF6.318
aF2.564
aF2.683
aF5.027
aF3.691
aF3.574
aF7.847
aF8.846
asI29
(lp14
F5.125
aF3.466
aF6.035
aF6.001
aF4.316
aF3.409
aF4.389
aF5.304
aF6.371
aF14.699
aF10.209
aF3.036
aF4.366
aF3.894
aF4.64
aF2.044
aF3.846
aF4.023
aF5.585
aF4.463
aF5.379
aF5.236
aF1.862
aF8.71
aF2.464
aF5.685
aF2.839
aF2.081
aF2.528
aF1.294
aF4.337
aF4.083
aF2.904
aF3.758
aF3.459
aF3.715
aF5.567
asI30
(lp15
F4.25
aF9.72
aF3.12
aF9.155
aF4.449
aF5.867
aF5.326
aF3.31
aF5.636
aF6.822
aF3.722
aF4.328
aF5.274
aF4.175
aF5.184
aF4.375
aF2.626
aF3.991
aF2.423
aF12.236
aF5.554
aF5.162
aF5.55
aF7.134
aF4.512
aF6.017
aF5.251
aF4.0
aF9.927
aF7.051
aF4.823
aF4.874
aF7.056
asI32
(lp16
F8.648
aF2.66
aF5.558
aF4.556
aF3.194
aF9.448
aF5.944
aF8.53
aF7.337
aF6.636
aF3.691
aF9.342
aF7.78
aF2.88
aF6.777
aF7.337
aF5.651
aF9.278
aF7.836
aF4.483
aF2.714
aF4.21
aF8.096
aF6.57
aF4.18
aF8.519
aF6.333
aF8.335
aF6.438
aF6.578
asI34
(lp17
F3.55
aF3.3
aF8.226
aF5.17
aF6.128
aF4.33
aF8.74
aF8.737
aF9.971
aF6.129
aF5.027
aF8.735
aF4.2
aF1.331
aF4.963
aF7.113
aF9.926
aF6.27
aF2.791
aF3.059
aF8.921
aF6.234
aF2.805
aF4.336
aF5.036
aF9.541
aF3.984
aF8.516
aF4.762
aF3.701
aF5.304
asI36
(lp18
F4.788
aF2.016
aF5.658
aF6.1
aF4.267
aF8.694
aF5.196
aF2.954
aF5.546
aF11.164
aF8.531
aF5.425
aF5.812
aF4.572
aF5.853
aF2.476
aF5.136
aF3.605
aF5.179
aF7.929
aF2.143
aF3.325
aF8.203
aF5.016
aF7.374
aF4.641
aF3.648
aF7.491
aF4.635
asI38
(lp19
F2.016
aF3.668
aF5.146
aF1.356
aF5.509
aF6.111
aF7.1
aF5.357
aF2.858
aF8.263
aF2.609
aF5.227
aF5.531
aF8.115
aF4.137
aF9.484
aF6.359
aF4.721
aF3.638
aF3.781
aF3.026
aF2.086
aF2.839
aF4.56
aF8.848
aF4.44
aF6.513
aF5.655
aF8.753
aF9.429
aF10.036
asI40
(lp20
F10.49
aF6.198
aF6.198
aF6.808
aF9.393
aF4.686
aF3.553
aF3.636
aF6.176
aF4.489
aF5.686
aF4.212
aF4.494
aF8.103
aF8.848
aF7.033
aF4.496
aF3.169
aF5.938
aF4.158
aF6.993
aF11.854
aF10.255
aF5.967
aF6.15
aF2.095
aF7.391
aF8.041
aF5.595
asI42
(lp21
F6.42
aF11.744
aF6.721
aF6.103
aF8.597
aF2.211
aF7.685
aF2.698
aF4.786
aF1.211
aF8.672
aF7.007
aF9.289
aF10.247
aF8.979
aF5.505
aF7.851
aF3.172
aF5.063
aF5.821
aF1.067
aF7.741
aF7.786
aF10.05
aF4.688
aF3.441
aF6.78
aF9.645
aF6.823
aF8.13
aF4.346
asI43
(lp22
F12.089
aF4.286
aF3.897
aF3.803
aF5.777
aF7.584
aF6.902
aF3.908
aF9.016
aF6.919
aF6.63
aF5.283
aF7.96
aF7.057
aF6.493
aF2.67
aF2.393
aF2.141
aF1.158
aF5.151
aF13.144
aF13.065
aF2.648
aF4.349
aF3.628
aF14.658
aF12.145
aF5.64
aF5.966
aF8.713
aF6.424
aF7.141
aF2.037
aF10.042
aF2.912
asI45
(lp23
F8.022
aF3.807
aF7.079
aF2.695
aF3.881
aF4.37
aF6.926
aF2.45
aF5.219
aF10.4
aF7.934
aF9.984
aF8.057
aF14.38
aF4.296
aF4.512
aF6.962
aF5.084
aF3.815
aF3.348
aF4.859
aF7.61
aF3.195
aF7.081
aF7.587
aF7.894
aF2.276
aF7.428
aF12.177
aF7.991
aF4.797
aF6.3
aF4.955
aF3.805
aF6.166
aF7.282
aF3.019
asI46
(lp24
F2.66
aF5.469
aF6.524
aF3.727
aF3.435
aF6.586
aF4.372
aF12.505
aF7.126
aF5.769
aF3.5
aF7.777
aF4.814
aF9.29
aF3.666
aF2.879
aF8.9
aF7.726
aF9.701
aF7.318
aF3.519
aF5.688
aF11.092
aF7.03
aF5.011
aF5.192
aF3.163
aF12.823
aF4.721
aF5.409
aF2.705
aF4.02
asI50
(lp25
F2.055
aF2.746
aF2.768
aF3.366
aF3.549
aF4.658
aF3.658
aF4.223
aF7.411
aF5.446
aF4.336
aF7.945
aF4.905
aF5.605
aF5.836
aF4.15
aF5.672
aF5.255
aF5.952
aF2.103
aF6.63
aF10.352
aF6.622
aF2.966
aF4.381
aF7.239
aF3.992
aF1.802
aF6.352
aF5.629
aF3.909
aF13.185
aF10.528
aF8.366
aF7.352
asI52
(lp26
F7.806
aF6.297
aF8.746
aF6.575
aF9.111
aF8.161
aF5.193
aF4.368
aF3.616
aF6.163
aF10.244
aF7.678
aF12.141
aF5.954
aF4.595
aF9.553
aF4.712
aF5.372
aF4.2
aF6.322
aF4.97
aF7.047
aF5.598
aF6.476
aF6.198
aF7.582
aF5.322
aF5.236
aF4.369
aF6.134
aF7.038
aF6.146
asI54
(lp27
F4.862
aF7.955
aF2.944
aF11.259
aF8.624
aF4.962
aF3.919
aF6.223
aF5.402
aF5.955
aF7.21
aF1.726
aF5.574
aF8.542
aF2.961
aF1.785
aF10.594
aF4.722
aF5.073
aF5.235
aF3.564
aF3.477
aF7.413
aF5.263
aF5.097
aF4.815
aF3.715
aF6.998
aF3.204
aF9.86
aF6.458
aF4.479
aF6.961
aF4.478
aF4.024
aF4.863
aF7.556
aF7.301
aF10.316
aF9.141
aF5.959
aF8.445
aF4.507
aF4.472
aF1.18
aF8.715
aF7.801
aF6.827
asI56
(lp28
F5.135
aF10.22
aF10.815
aF7.121
aF3.765
aF7.797
aF1.935
aF5.617
aF8.805
aF8.386
aF4.044
aF5.644
aF4.256
aF2.574
aF5.933
aF5.921
aF2.877
aF3.844
aF4.754
aF6.935
aF5.527
aF3.679
aF5.233
aF3.582
aF8.38
aF5.866
aF5.778
aF1.686
aF2.117
aF4.141
aF10.598
aF4.531
aF4.557
aF8.398
aF5.645
aF4.52
aF2.176
aF4.677
aF6.417
aF9.498
aF11.055
aF10.376
asI58
(lp29
F4.425
aF2.377
aF7.601
aF2.04
aF4.543
aF3.255
aF3.307
aF13.141
aF6.801
aF5.599
aF5.78
aF7.791
aF7.961
aF4.785
aF8.248
aF4.973
aF3.716
aF2.304
aF5.39
aF6.772
aF5.187
aF2.977
aF5.824
aF11.653
aF4.189
aF8.861
aF14.556
aF10.703
aF5.875
aF4.372
aF3.803
aF3.785
aF6.101
aF6.124
aF2.914
aF2.66
aF2.623
aF5.153
aF5.642
aF1.844
aF3.216
aF9.198
aF19.175
aF3.721
aF4.276
aF3.808
asI60
(lp30
F2.591
aF7.562
aF4.424
aF1.722
aF1.133
aF5.05
aF8.328
aF7.786
aF8.472
aF16.609
aF4.504
aF3.643
aF4.826
aF3.709
aF11.103
aF8.321
aF9.151
aF8.891
aF0.534
aF2.568
aF10.444
aF2.654
aF4.422
aF5.725
aF6.048
aF8.296
aF7.425
aF4.747
aF5.766
aF4.165
aF4.329
aF7.325
aF5.196
aF6.888
aF7.38
aF4.719
aF1.082
aF7.744
aF9.09
aF4.297
aF5.287
aF6.719
aF5.146
aF3.173
aF5.232
aF4.073
aF5.142
aF12.271
aF5.948
aF6.157
aF4.551
aF2.02
asI62
(lp31
F3.849
aF6.414
aF6.109
aF4.77
aF5.365
aF5.632
aF5.431
aF6.99
aF10.876
aF4.662
aF2.251
aF4.645
aF2.682
aF4.656
aF9.143
aF7.485
aF1.717
aF2.948
aF4.562
aF3.752
aF3.457
aF5.46
aF6.223
aF2.569
aF9.788
aF9.64
aF8.902
aF13.494
aF2.547
aF5.412
aF2.878
aF3.761
aF5.54
aF6.959
aF3.544
aF5.472
aF5.339
aF4.42
aF9.8
aF3.674
aF5.695
aF1.863
aF3.351
aF6.824
aF10.204
aF3.651
aF1.433
aF8.346
aF8.206
aF8.283
aF5.509
aF5.08
aF3.208
aF9.971
asI64
(lp32
F7.441
aF6.507
aF4.998
aF4.862
aF7.453
aF2.559
aF6.323
aF4.081
aF5.01
aF6.462
aF6.565
aF5.62
aF4.656
aF3.364
aF4.703
aF2.744
aF5.84
aF8.054
aF4.266
aF2.044
aF5.017
aF1.161
aF4.498
aF3.714
aF5.93
aF6.093
aF6.485
aF6.184
aF5.361
aF2.462
aF4.576
aF8.472
aF2.852
aF5.259
aF3.07
aF4.978
aF2.343
aF3.883
aF6.197
aF3.171
aF6.235
aF3.567
aF6.286
aF6.637
aF7.293
aF5.933
aF8.397
aF4.742
aF3.753
aF5.539
aF4.526
aF8.717
aF3.216
aF3.187
aF7.364
aF9.948
aF6.912
aF4.791
aF5.34
asI66
(lp33
F8.71
aF14.893
aF14.183
aF9.139
aF9.691
aF8.896
aF6.499
aF8.684
aF8.643
aF9.471
aF8.916
aF7.561
aF6.88
aF6.877
aF6.202
aF9.302
aF9.574
aF11.764
aF9.237
aF15.506
aF10.714
aF6.335
aF7.441
aF4.259
aF11.25
aF10.311
aF9.821
aF6.022
aF7.07
aF2.988
aF13.165
aF2.012
aF5.303
aF5.263
aF8.642
aF8.012
aF7.379
aF6.796
aF4.021
aF3.469
aF4.469
aF5.115
aF7.956
aF6.321
aF4.094
aF8.749
aF7.332
aF7.867
aF13.094
aF6.239
aF4.219
aF8.841
aF7.218
aF9.908
aF5.205
aF5.525
aF7.744
asI67
(lp34
F8.628
aF10.344
aF9.882
aF6.218
aF9.28
aF8.207
aF8.615
aF3.788
aF2.89
aF7.189
aF9.214
aF11.249
aF8.287
aF6.398
aF6.565
aF6.719
aF3.619
aF3.968
aF3.369
aF4.77
aF6.338
aF4.438
aF12.266
aF1.526
aF4.76
aF2.286
aF5.746
aF6.437
aF3.308
aF6.971
aF11.467
aF7.048
aF8.668
aF7.008
aF5.2
aF10.011
aF5.849
aF3.42
aF7.027
aF12.929
aF6.633
aF8.996
aF6.819
aF7.039
aF3.31
aF10.867
aF4.568
aF5.361
asI68
(lp35
F7.217
aF6.486
aF5.521
aF8.157
aF7.864
aF6.744
aF6.874
aF4.563
aF4.656
aF4.408
aF5.248
aF7.088
aF7.791
aF3.827
aF4.204
aF5.248
aF7.602
aF5.789
aF2.151
aF3.251
aF5.925
aF2.73
aF6.943
aF13.848
aF5.948
aF8.828
aF4.498
aF10.978
aF4.675
aF5.447
aF7.123
aF7.029
aF7.43
aF9.871
aF8.945
aF6.831
aF6.305
aF6.644
aF12.669
aF9.925
aF7.749
aF6.827
aF7.475
aF7.842
aF5.843
asI69
(lp36
F9.128
aF5.457
aF7.352
aF5.055
aF9.733
aF8.152
aF6.03
aF8.6
aF5.45
aF10.415
aF5.331
aF5.01
aF5.983
aF4.083
aF5.312
aF6.415
aF6.625
aF7.0
aF6.986
aF10.678
aF6.213
aF5.047
aF6.293
aF6.66
aF4.757
aF6.045
aF12.336
aF6.356
aF5.165
aF10.184
aF6.274
aF4.216
aF7.556
aF10.132
aF5.187
aF5.724
aF7.51
aF6.588
aF8.664
aF7.0
aF7.323
asI74
(lp37
F5.458
aF6.374
aF5.726
aF2.735
aF9.636
aF4.416
aF2.587
aF5.205
aF7.716
aF2.892
aF3.234
aF5.13
aF2.597
aF2.59
aF2.3
aF2.055
aF4.512
aF2.617
aF3.506
aF10.731
aF8.413
aF2.422
aF11.527
aF2.895
aF3.42
aF7.085
aF4.858
aF7.71
aF6.06
aF7.459
aF4.462
aF3.788
aF1.08
aF6.454
aF1.859
aF2.597
aF4.666
aF1.948
aF7.234
aF5.327
aF7.755
aF2.527
aF1.903
aF1.166
aF7.718
aF4.287
aF4.741
aF6.608
aF6.63
aF1.85
aF4.547
aF6.966
aF8.737
aF5.071
asI75
(lp38
F5.507
aF17.886
aF10.045
aF4.259
aF6.488
aF7.809
aF8.416
aF3.748
aF7.305
aF5.481
aF5.758
aF7.277
aF4.964
aF4.16
aF7.986
aF4.547
aF4.602
aF6.985
aF6.972
aF4.858
aF6.066
aF8.773
aF3.908
aF8.745
aF2.773
aF10.675
aF7.822
aF8.396
aF11.491
aF12.982
aF9.53
aF5.59
aF5.326
aF5.687
aF7.908
aF3.703
aF14.326
aF16.435
aF2.632
asI76
(lp39
F6.557
aF4.217
aF6.082
aF3.065
aF1.344
aF1.894
aF2.69
aF3.229
aF5.858
aF2.011
aF9.086
aF5.457
aF2.927
aF9.675
aF5.612
aF7.853
aF4.008
aF3.006
aF4.912
aF1.143
aF1.268
aF9.952
aF3.773
aF12.581
aF2.723
aF2.416
aF3.443
aF5.347
aF2.984
aF1.878
aF3.045
aF4.113
aF9.827
aF6.807
aF1.345
aF5.036
aF4.548
aF1.246
aF4.171
aF2.285
aF5.152
aF2.399
aF2.01
aF3.788
aF2.943
aF6.01
aF9.278
aF3.697
aF3.741
aF3.443
aF5.242
aF7.635
aF6.274
aF5.509
aF2.925
asI77
(lp40
F3.883
aF5.234
aF2.672
aF5.319
aF7.584
aF6.15
aF9.612
aF4.495
aF5.501
aF4.352
aF3.455
aF7.202
aF3.05
aF11.429
aF7.249
aF12.22
aF8.213
aF4.245
aF6.541
aF4.159
aF4.965
aF4.594
aF4.257
aF4.307
aF2.932
aF10.86
aF3.859
aF4.565
aF3.415
aF5.988
aF3.379
aF3.602
aF7.724
aF8.8
aF8.165
aF5.64
aF3.862
aF6.255
aF8.587
aF5.309
aF3.797
aF3.747
aF5.084
asI78
(lp41
F3.637
aF6.106
aF4.866
aF4.103
aF7.673
aF8.999
aF3.853
aF4.53
aF6.575
aF11.244
aF8.222
aF6.378
aF3.497
aF6.113
aF11.06
aF6.538
aF3.314
aF7.405
aF3.988
aF4.055
aF6.258
aF4.203
aF8.691
aF3.183
aF0.19
aF4.895
aF4.854
aF9.965
aF3.571
aF7.999
aF17.981
aF5.225
aF3.792
aF4.732
aF5.588
aF4.211
aF5.23
aF1.105
aF4.36
aF5.362
aF0.87
aF11.659
aF5.111
aF4.047
aF4.328
aF4.547
aF10.756
aF7.822
aF3.24
aF7.701
aF3.526
aF14.156
aF5.296
aF6.564
aF5.253
aF3.495
aF7.444
aF8.41
aF2.541
aF1.971
aF4.686
aF5.361
asI83
(lp42
F5.301
aF5.662
aF4.177
aF3.508
aF8.118
aF3.513
aF5.377
aF6.828
aF6.682
aF9.178
aF4.281
aF4.105
aF4.455
aF3.896
aF4.277
aF3.493
aF0.957
aF3.225
aF3.328
aF3.771
aF8.739
aF1.314
aF2.617
aF6.355
aF2.481
aF6.714
aF4.678
aF2.492
aF6.711
aF4.236
aF7.837
aF7.327
aF2.403
aF5.404
aF5.468
aF2.973
aF4.42
aF2.569
aF6.834
aF9.306
aF5.327
aF5.148
aF7.849
aF3.352
aF5.429
aF2.749
aF6.881
aF1.34
aF7.408
aF3.016
aF4.945
aF6.758
aF4.37
aF5.833
aF1.78
aF8.869
aF1.189
asI84
(lp43
F2.712
aF6.938
aF5.151
aF5.293
aF1.083
aF8.968
aF5.745
aF4.913
aF10.562
aF2.478
aF4.309
aF6.845
aF6.068
aF4.029
aF4.332
aF1.346
aF13.191
aF5.319
aF16.345
aF4.901
aF6.97
aF9.166
aF5.471
aF4.405
aF3.155
aF5.208
aF8.508
aF5.594
aF3.189
aF2.42
aF6.233
aF6.783
aF5.83
aF6.388
aF7.909
aF9.828
aF4.558
aF6.214
aF5.464
aF3.174
aF7.983
aF7.588
aF4.407
aF8.531
aF7.134
aF10.59
aF4.569
aF7.12
aF7.17
aF7.398
aF9.319
aF6.167
asI85
(lp44
F5.488
aF4.399
aF9.478
aF6.262
aF9.239
aF3.625
aF3.678
aF6.436
aF5.915
aF4.505
aF3.516
aF4.433
aF4.537
aF6.556
aF3.599
aF5.492
aF7.742
aF4.7
aF3.748
aF5.299
aF10.028
aF4.953
aF6.781
aF5.514
aF6.508
aF3.943
aF5.147
aF8.37
aF3.442
aF4.549
aF4.995
aF6.701
aF7.658
aF3.073
aF2.981
aF1.876
aF5.3
aF10.077
aF4.134
aF5.852
aF6.47
aF2.021
aF1.874
aF7.249
asI86
(lp45
F6.879
aF3.973
aF4.611
aF3.336
aF4.487
aF5.364
aF3.208
aF5.683
aF5.267
aF4.609
aF1.115
aF4.909
aF17.253
aF4.273
aF10.261
aF5.297
aF4.661
aF8.641
aF3.423
aF5.922
aF6.171
aF3.061
aF4.945
aF8.099
aF7.301
aF4.387
aF3.946
aF2.821
aF8.635
aF10.696
aF6.554
aF9.737
aF7.978
aF6.596
aF4.039
aF8.679
aF3.912
aF6.523
aF2.702
aF3.574
aF8.394
aF2.218
aF5.543
aF6.277
asI91
(lp46
F8.453
aF7.272
aF8.746
aF6.546
aF10.915
aF4.437
aF4.033
aF4.864
aF5.369
aF2.024
aF2.95
aF6.252
aF3.38
aF4.874
aF7.816
aF2.415
aF6.3
aF5.756
aF6.012
aF5.454
aF4.946
aF2.964
aF8.011
aF1.756
aF6.857
aF3.808
aF3.769
aF7.268
aF7.481
aF6.154
aF4.913
aF5.865
aF5.72
aF5.568
aF7.698
aF5.499
aF4.272
aF9.252
aF5.501
aF1.131
aF6.283
aF7.951
aF4.916
asI92
(lp47
F7.487
aF6.751
aF6.387
aF5.9
aF6.393
aF9.419
aF4.459
aF7.549
aF5.259
aF8.103
aF5.085
aF2.715
aF6.974
aF7.405
aF4.071
aF4.379
aF3.741
aF9.073
aF5.164
aF4.528
aF2.722
aF9.895
aF11.242
aF6.179
aF5.601
aF5.474
aF4.765
aF7.997
aF2.39
aF5.717
aF4.32
aF4.888
aF6.665
aF9.897
aF7.114
aF10.482
aF8.823
aF8.245
aF9.438
asI93
(lp48
F5.013
aF4.693
aF9.963
aF3.796
aF3.483
aF1.8
aF4.45
aF3.608
aF5.301
aF2.812
aF3.907
aF5.347
aF7.619
aF2.779
aF4.835
aF5.425
aF7.83
aF10.187
aF2.048
aF8.652
aF4.931
aF10.058
aF4.896
aF12.235
aF7.937
aF5.767
aF7.907
aF3.346
aF5.545
aF5.122
aF7.959
aF5.912
aF2.769
aF3.288
aF5.317
aF0.422
aF6.802
aF4.205
aF8.448
aF5.642
aF1.919
aF4.039
aF4.644
aF6.17
aF4.525
aF3.505
aF0.96
aF4.404
aF4.918
asI94
(lp49
F9.016
aF8.24
aF9.275
aF1.643
aF7.247
aF2.911
aF3.709
aF7.144
aF8.263
aF7.97
aF12.046
aF5.519
aF2.919
aF4.641
aF6.501
aF6.448
aF4.785
aF5.542
aF5.908
aF4.298
aF9.522
aF4.042
aF5.064
aF3.696
aF4.384
aF8.374
aF4.42
aF11.219
aF9.006
aF6.656
aF7.112
aF1.231
aF2.732
aF5.154
aF12.104
aF4.177
aF3.359
aF7.222
aF7.688
aF1.481
aF5.029
aF10.193
aF5.378
aF5.436
asI99
(lp50
F10.463
aF5.69
aF5.421
aF3.471
aF5.115
aF5.834
aF5.272
aF1.822
aF6.189
aF4.062
aF7.371
aF3.211
aF6.909
aF2.553
aF4.087
aF7.203
aF5.729
aF4.288
aF3.553
aF5.955
aF5.865
aF9.306
aF3.943
aF7.194
aF8.336
aF5.096
aF6.293
aF3.265
aF7.216
aF9.92
aF11.535
aF3.443
aF6.057
aF7.68
aF8.961
aF8.762
aF5.158
aF6.133
aF6.854
aF11.891
aF6.216
asI100
(lp51
F8.843
aF6.405
aF4.206
aF4.013
aF7.257
aF4.879
aF2.023
aF1.524
aF7.277
aF5.388
aF1.676
aF3.597
aF4.232
aF6.679
aF7.279
aF10.928
aF4.146
aF2.562
aF4.743
aF10.268
aF5.348
aF9.255
aF7.218
aF6.294
aF4.329
aF4.912
aF2.961
aF8.468
aF6.579
aF1.887
aF9.435
aF7.532
aF6.369
aF8.835
aF9.443
aF2.712
aF6.778
aF8.54
aF8.633
aF5.956
aF9.396
aF2.86
aF6.275
aF7.695
aF3.438
aF6.606
aF9.444
asI101
(lp52
F1.774
aF5.638
aF4.996
aF5.213
aF7.853
aF5.384
aF1.213
aF5.781
aF3.645
aF5.003
aF3.421
aF6.776
aF3.7
aF10.614
aF5.351
aF1.899
aF3.507
aF1.857
aF3.59
aF2.035
aF5.158
aF5.544
aF2.76
aF2.004
aF6.137
aF6.242
aF2.415
aF7.208
aF3.641
aF0.91
aF0.733
aF3.949
aF2.901
aF1.831
aF5.085
aF8.721
aF5.696
aF4.472
aF5.159
aF4.925
aF3.605
aF6.956
aF5.128
aF3.475
aF3.908
aF4.096
aF5.536
aF5.024
aF2.619
aF3.206
aF9.975
aF0.192
aF3.396
aF2.698
aF2.577
aF2.855
aF3.62
aF2.023
aF3.416
aF0.256
aF3.318
aF3.472
aF4.218
aF4.191
aF2.691
aF4.278
aF4.43
aF2.044
aF8.652
aF1.748
aF2.223
aF6.71
aF9.028
aF3.926
aF6.117
aF5.684
aF7.482
aF2.522
asI103
(lp53
F2.5
aF5.085
aF5.537
aF5.332
aF4.761
aF2.695
aF2.359
aF3.269
aF4.709
aF1.988
aF3.228
aF6.195
aF4.936
aF2.456
aF8.631
aF3.471
aF7.925
aF8.802
aF4.048
aF7.438
aF4.742
aF5.892
aF10.053
aF4.611
aF12.638
aF3.39
aF4.104
aF6.66
aF4.123
aF8.141
aF3.388
aF3.969
aF5.426
aF4.18
aF3.339
aF3.305
aF4.342
aF5.811
aF5.318
aF7.553
aF6.959
aF8.501
aF2.595
aF4.716
aF11.271
aF6.613
aF2.795
aF5.094
aF5.33
aF8.423
aF4.552
aF11.064
aF13.617
aF3.818
aF7.729
aF9.539
aF5.005
aF7.761
asI107
(lp54
F1.938
aF4.373
aF1.847
aF3.518
aF2.934
aF3.158
aF7.938
aF4.567
aF1.73
aF6.877
aF4.845
aF4.396
aF4.5
aF1.387
aF2.092
aF1.857
aF5.156
aF4.007
aF1.031
aF4.967
aF2.499
aF6.069
aF3.957
aF3.559
aF2.401
aF3.289
aF9.39
aF5.204
aF1.833
aF3.773
aF4.472
aF4.671
aF2.699
aF6.65
aF5.118
aF1.538
aF0.21
aF3.563
aF3.358
aF4.1
aF1.088
aF3.666
aF2.61
aF2.875
aF2.634
aF7.407
aF5.49
aF1.302
aF2.186
aF6.052
aF6.01
aF3.227
aF3.495
aF3.509
aF3.757
aF4.456
aF5.052
aF3.548
aF5.111
aF5.43
aF6.529
aF6.767
aF5.272
aF2.081
aF7.327
aF3.42
aF3.346
aF5.943
aF4.948
aF3.51
aF2.771
aF6.04
aF10.93
aF7.398
aF3.993
aF14.908
aF3.285
aF6.014
aF11.135
aF7.606
asI108
(lp55
F4.723
aF8.06
aF14.193
aF4.615
aF10.201
aF5.879
aF6.579
aF7.802
aF7.646
aF5.528
aF3.53
aF1.775
aF1.96
aF9.885
aF4.74
aF4.93
aF6.26
aF7.906
aF4.932
aF2.39
aF4.414
aF5.483
aF3.96
aF8.035
aF8.65
aF4.207
aF6.126
aF7.646
aF8.328
aF7.994
aF5.624
aF4.828
aF9.381
aF7.198
aF2.107
aF8.188
aF1.887
aF3.53
aF4.031
aF10.738
aF4.007
aF4.223
aF2.603
aF4.118
aF4.329
aF6.178
aF2.299
aF5.067
aF1.756
aF3.172
aF7.721
aF4.749
aF6.284
aF2.844
aF4.381
asI109
(lp56
F6.065
aF2.654
aF2.338
aF3.583
aF5.116
aF1.109
aF1.892
aF4.315
aF1.853
aF2.586
aF3.257
aF2.809
aF3.469
aF6.497
aF5.486
aF3.441
aF9.056
aF2.911
aF3.755
aF3.466
aF3.431
aF4.643
aF13.135
aF3.077
aF2.888
aF5.401
aF6.067
aF10.73
aF4.514
aF2.132
aF6.268
aF1.591
aF4.143
aF5.071
aF2.922
aF2.799
aF4.987
aF1.681
aF0.977
aF3.001
aF3.195
aF5.296
aF3.658
aF5.332
aF5.021
aF1.692
aF1.105
aF3.882
aF8.365
aF7.081
aF2.605
aF4.166
aF10.47
aF4.27
aF4.451
aF1.696
aF4.368
aF7.795
aF2.712
aF3.173
aF5.823
aF3.708
aF9.577
aF5.974
aF8.937
aF4.564
aF6.495
aF3.965
aF5.384
aF6.294
asI110
(lp57
F2.555
aF5.837
aF7.802
aF6.723
aF7.48
aF6.708
aF4.392
aF3.622
aF5.312
aF4.276
aF3.293
aF3.862
aF7.372
aF4.403
aF4.77
aF6.588
aF14.175
aF2.042
aF4.165
aF8.693
aF6.871
aF0.461
aF2.394
aF6.028
aF2.57
aF5.275
aF4.58
aF6.042
aF0.977
aF5.358
aF1.621
aF4.135
aF3.526
aF10.143
aF4.589
aF8.055
aF4.797
aF2.031
aF6.139
aF2.733
aF5.001
aF2.834
aF6.113
aF2.827
aF4.338
aF4.494
aF6.848
aF4.915
aF6.301
aF5.247
aF1.226
aF3.546
aF5.928
aF7.497
aF1.738
aF5.248
aF5.498
aF4.079
aF1.952
aF4.766
aF3.821
aF1.295
aF5.094
aF5.127
aF4.785
aF1.206
aF2.661
aF1.736
aF2.582
aF3.428
aF7.677
aF2.728
asI115
(lp58
F4.722
aF6.104
aF2.481
aF4.452
aF2.648
aF8.89
aF4.688
aF4.615
aF6.176
aF3.805
aF7.695
aF3.555
aF3.527
aF3.528
aF3.57
aF3.183
aF4.903
aF4.857
aF4.087
aF3.203
aF3.809
aF3.834
aF0.605
aF2.307
aF2.247
aF4.607
aF2.91
aF4.217
aF5.104
aF1.744
aF3.103
aF1.009
aF3.249
aF2.597
aF5.697
aF5.073
aF3.837
aF3.012
aF4.717
aF4.457
aF3.268
aF6.057
aF9.674
aF7.92
aF8.019
aF3.981
aF10.435
aF1.835
aF4.074
aF4.678
aF4.631
aF2.295
aF2.874
aF3.274
aF3.087
aF4.299
aF3.489
aF3.47
aF3.454
aF4.943
aF3.506
aF13.179
aF3.604
aF1.845
aF5.632
aF4.702
aF5.632
aF4.683
aF7.357
aF2.871
aF2.69
aF2.89
aF5.171
aF2.071
aF4.184
aF2.952
aF7.12
aF2.344
aF2.75
aF5.363
aF3.54
aF5.612
aF6.415
aF2.663
aF6.621
aF8.447
asI116
(lp59
F2.575
aF2.586
aF2.626
aF5.326
aF3.269
aF7.51
aF3.651
aF5.677
aF7.959
aF3.566
aF9.86
aF5.401
aF4.196
aF3.21
aF4.0
aF1.889
aF2.576
aF2.657
aF3.771
aF2.276
aF7.513
aF9.132
aF5.184
aF9.817
aF3.697
aF3.224
aF3.392
aF6.279
aF4.556
aF4.291
aF5.899
aF4.963
aF2.465
aF1.784
aF3.18
aF2.127
aF3.422
aF0.873
aF4.365
aF6.53
aF3.693
aF6.213
aF4.504
aF2.309
aF7.085
aF6.376
aF4.614
aF4.26
aF6.717
aF2.487
aF1.598
aF13.611
aF4.53
aF2.897
aF6.44
aF5.366
aF0.715
aF3.36
aF11.293
aF4.73
aF2.424
aF2.149
aF4.454
aF3.374
aF2.827
aF0.222
aF5.013
aF1.919
aF7.243
asI117
(lp60
F3.595
aF6.248
aF7.842
aF4.083
aF3.337
aF3.742
aF3.987
aF3.883
aF4.938
aF7.339
aF3.812
aF5.178
aF5.977
aF2.754
aF1.669
aF3.167
aF3.176
aF6.015
aF6.847
aF3.468
aF3.261
aF3.215
aF5.838
aF1.829
aF5.039
aF3.739
aF3.84
aF3.537
aF5.346
aF1.921
aF3.531
aF3.425
aF9.086
aF6.569
aF2.544
aF3.065
aF3.615
aF3.644
aF3.786
aF5.02
aF2.108
aF2.419
aF2.74
aF1.54
aF2.574
aF2.077
aF7.834
aF9.861
aF6.408
aF6.5
aF3.319
aF5.831
aF5.578
aF5.001
aF2.508
aF1.752
aF7.792
aF2.768
aF3.335
aF3.876
aF4.264
aF2.815
aF2.379
aF3.243
aF2.966
aF3.95
aF5.639
aF5.04
aF3.625
aF5.975
aF5.467
aF2.393
aF1.889
aF2.565
aF7.434
aF1.902
aF3.539
aF6.405
aF3.977
aF5.819
asI121
(lp61
F7.358
aF4.165
aF8.804
aF7.706
aF6.347
aF1.113
aF2.138
aF3.203
aF7.985
aF7.572
aF4.868
aF4.631
aF5.866
aF6.699
aF3.015
aF3.589
aF8.392
aF5.486
aF5.157
aF7.467
aF7.863
aF10.808
aF7.538
aF4.328
aF2.651
aF10.7
aF5.769
aF4.162
aF6.744
aF2.921
aF3.575
aF4.362
aF4.882
aF2.653
aF5.792
aF5.86
aF5.947
aF1.031
aF3.689
aF7.335
aF3.578
aF5.311
aF3.154
aF7.301
aF10.89
aF9.034
aF5.663
aF5.746
aF3.962
aF8.046
aF13.004
asI122
(lp62
F4.971
aF1.765
aF2.812
aF5.291
aF8.722
aF1.685
aF7.365
aF0.796
aF5.727
aF5.977
aF2.557
aF5.1
aF3.806
aF2.86
aF2.493
aF14.866
aF2.558
aF6.291
aF4.319
aF7.458
aF1.673
aF3.688
aF4.941
aF7.044
aF1.331
aF5.52
aF3.816
aF7.879
aF3.886
aF2.323
aF6.5
aF2.345
aF3.824
aF4.33
aF4.049
aF4.708
aF3.864
aF1.852
aF4.216
aF4.063
aF4.393
aF4.215
aF3.618
aF5.585
aF3.313
aF2.448
aF10.975
aF3.507
aF4.291
aF4.833
aF3.382
aF4.217
aF3.756
aF3.092
aF2.297
aF2.542
aF1.901
aF3.474
aF3.3
aF6.843
aF0.583
aF5.432
aF5.14
aF7.989
aF4.933
aF3.338
aF1.08
aF1.269
aF2.887
aF5.049
aF5.598
aF7.527
aF2.952
asI123
(lp63
F2.614
aF2.207
aF4.723
aF11.098
aF4.26
aF3.9
aF2.442
aF2.778
aF6.146
aF1.824
aF4.029
aF4.93
aF3.137
aF0.925
aF2.708
aF1.936
aF4.96
aF3.839
aF6.744
aF4.925
aF1.642
aF5.299
aF3.483
aF5.331
aF2.08
aF4.434
aF2.528
aF2.57
aF3.481
aF4.041
aF4.845
aF3.358
aF1.462
aF3.47
aF3.942
aF2.909
aF3.436
aF2.775
aF2.686
aF6.376
aF3.592
aF9.146
aF1.323
aF1.938
aF10.801
aF5.21
aF7.401
aF1.837
aF3.635
aF5.366
aF5.082
aF0.652
aF6.948
aF1.761
aF4.429
aF4.159
aF4.858
aF4.302
aF2.701
aF1.585
aF5.492
aF1.748
aF4.133
aF7.812
aF9.082
aF5.216
aF5.47
aF5.811
aF2.771
aF1.768
aF10.014
aF6.972
aF2.246
aF4.008
aF5.454
aF2.315
aF3.755
aF0.907
aF6.742
aF3.349
aF3.987
aF4.667
aF5.266
aF5.158
aF3.818
aF3.861
aF3.089
aF7.642
aF4.052
aF2.842
aF3.796
aF3.775
aF4.504
asI124
(lp64
F6.351
aF10.713
aF7.966
aF4.741
aF5.523
aF4.128
aF6.822
aF3.075
aF3.354
aF1.689
aF4.312
aF3.474
aF1.636
aF3.998
aF6.132
aF6.06
aF5.599
aF3.751
aF4.336
aF5.432
aF1.022
aF4.299
aF2.849
aF1.993
aF2.992
aF1.039
aF0.21
aF3.387
aF4.224
aF3.75
aF5.722
aF2.526
aF0.389
aF5.6
aF1.972
aF3.406
aF1.913
aF2.067
aF2.588
aF1.713
aF4.788
aF0.337
aF1.931
aF1.821
aF5.447
aF2.526
aF2.604
aF10.756
aF3.2
aF8.859
aF3.347
aF9.729
aF8.053
aF5.587
aF3.081
aF9.425
aF6.277
aF4.916
aF1.977
aF4.14
aF9.064
aF1.691
aF2.502
aF1.116
aF2.421
aF4.42
asI129
(lp65
F5.26
aF5.135
aF4.349
aF1.179
aF7.348
aF2.515
aF3.653
aF2.544
aF5.754
aF6.517
aF3.211
aF4.296
aF5.7
aF2.682
aF4.731
aF2.086
aF13.718
aF3.806
aF1.752
aF2.145
aF4.675
aF3.447
aF3.656
aF4.389
aF9.148
aF5.924
aF4.274
aF5.527
aF8.612
aF1.763
aF3.209
aF1.808
aF6.223
aF6.107
aF4.13
aF7.314
aF3.647
aF5.422
aF6.549
aF2.592
aF6.048
aF2.424
aF6.202
aF1.12
aF1.868
aF10.754
aF2.732
aF4.776
aF2.411
aF4.3
aF2.958
aF9.105
aF4.044
aF7.149
aF5.659
aF12.243
aF2.707
aF7.083
aF4.057
aF3.724
aF3.234
aF1.776
aF2.938
aF4.178
aF1.761
aF4.175
aF1.728
aF5.884
aF3.447
aF2.496
aF6.43
aF2.087
aF1.177
aF4.349
aF0.824
aF2.912
aF7.187
aF9.517
asI130
(lp66
F1.479
aF5.005
aF8.117
aF4.241
aF6.592
aF4.203
aF7.718
aF1.139
aF1.72
aF4.672
aF5.358
aF11.293
aF6.935
aF4.936
aF3.493
aF3.476
aF5.411
aF2.625
aF1.914
aF3.517
aF4.187
aF1.121
aF5.81
aF4.263
aF4.859
aF5.033
aF1.599
aF8.219
aF9.814
aF7.118
aF9.589
aF15.023
aF10.301
aF4.681
aF1.976
aF1.712
aF5.948
aF2.507
aF4.611
aF5.648
aF6.917
aF8.121
aF3.311
aF3.696
aF2.659
aF9.883
aF5.344
aF1.983
aF2.002
aF5.272
aF2.714
aF3.404
aF2.501
aF1.565
aF5.931
aF7.038
aF2.562
aF6.397
aF5.973
aF1.861
aF2.939
aF2.829
aF3.248
aF5.48
aF1.92
aF2.416
aF3.856
aF4.876
asI133
(lp67
F4.002
aF4.607
aF7.323
aF5.098
aF6.694
aF4.238
aF4.573
aF4.391
aF4.398
aF1.608
aF7.119
aF4.727
aF2.736
aF7.067
aF4.256
aF2.585
aF2.969
aF4.605
aF5.757
aF6.734
aF5.183
aF2.65
aF4.156
aF4.693
aF2.757
aF7.339
aF4.856
aF2.375
aF14.618
aF6.807
aF5.828
aF4.027
aF5.18
aF3.64
aF5.173
aF6.018
aF0.563
aF1.889
aF6.346
aF4.736
aF2.795
aF3.76
aF6.203
aF2.24
aF3.574
aF8.948
aF3.775
aF4.813
aF3.35
aF9.228
aF2.64
aF4.306
aF6.402
aF4.315
aF1.75
aF8.747
aF4.247
aF6.859
asI134
(lp68
F2.09
aF4.253
aF10.444
aF3.962
aF4.808
aF5.379
aF5.42
aF1.036
aF5.483
aF3.278
aF1.955
aF1.799
aF4.901
aF3.4
aF1.801
aF4.079
aF5.888
aF6.781
aF7.174
aF2.747
aF3.638
aF3.339
aF8.032
aF5.307
aF1.514
aF0.47
aF8.984
aF6.348
aF2.603
aF5.869
aF4.824
aF3.942
aF7.465
aF2.264
aF2.802
aF1.086
aF7.057
aF3.452
aF2.584
aF12.831
aF3.453
aF7.033
aF5.919
aF7.958
aF2.444
aF4.487
aF3.503
aF7.854
aF15.226
aF3.403
aF2.935
aF2.594
aF8.464
aF3.793
aF5.924
aF3.515
aF3.845
aF4.749
aF5.21
aF2.984
aF4.245
aF4.175
aF5.065
aF5.998
aF6.03
aF2.935
aF3.438
asI135
(lp69
F5.84
aF2.78
aF5.287
aF3.652
aF4.332
aF4.56
aF1.784
aF6.59
aF11.53
aF8.935
aF1.063
aF6.597
aF4.127
aF9.932
aF5.217
aF7.446
aF6.662
aF6.031
aF3.036
aF4.374
aF8.978
aF2.844
aF6.595
aF5.149
aF6.127
aF3.424
aF3.068
aF4.142
aF2.304
aF6.249
aF1.304
aF4.378
aF10.24
aF7.179
aF3.724
aF6.683
aF1.99
aF4.936
aF4.779
aF13.963
aF3.306
aF3.653
aF10.971
aF8.196
aF5.162
aF3.722
aF5.574
aF1.911
aF2.732
aF4.718
aF3.227
aF1.716
aF6.624
aF7.114
aF6.059
aF6.241
aF4.809
aF3.994
asI139
(lp70
F2.698
aF7.127
aF7.769
aF3.57
aF7.238
aF9.537
aF3.226
aF3.296
aF3.513
aF5.336
aF4.955
aF3.519
aF1.023
aF3.473
aF5.69
aF6.887
aF10.978
aF4.846
aF2.64
aF8.46
aF6.413
aF3.844
aF4.604
aF3.8
aF6.159
aF2.607
aF5.788
aF4.139
aF6.493
aF10.637
aF4.111
aF3.393
aF2.698
aF4.786
aF3.459
aF1.613
aF5.228
aF4.439
aF0.14
aF0.791
aF5.864
aF6.905
aF4.082
aF13.819
aF12.254
aF1.847
aF4.613
aF1.68
aF3.001
aF11.497
aF6.275
aF3.197
aF7.737
aF6.271
aF1.935
aF1.797
aF6.702
aF5.693
aF7.909
aF8.634
aF1.267
aF2.386
aF5.717
aF1.905
aF4.829
aF3.303
aF1.604
asI140
(lp71
F0.861
aF2.658
aF3.207
aF1.704
aF6.569
aF2.465
aF0.846
aF2.469
aF2.659
aF0.997
aF4.074
aF7.185
aF6.137
aF2.594
aF7.184
aF5.362
aF2.277
aF0.919
aF6.398
aF1.721
aF3.012
aF3.439
aF4.639
aF6.819
aF4.21
aF1.928
aF1.23
aF5.82
aF3.691
aF1.756
aF1.746
aF7.369
aF3.033
aF0.075
aF4.735
aF4.594
aF2.164
aF4.432
aF3.056
aF3.167
aF3.619
aF1.229
aF4.941
aF3.341
aF2.212
aF3.33
aF4.937
aF2.4
aF1.913
aF2.653
aF0.709
aF1.661
aF5.769
aF10.792
aF1.184
aF4.222
aF4.607
aF1.122
aF7.515
aF2.154
aF6.149
aF2.552
aF4.713
aF4.462
aF4.725
aF4.281
aF2.926
aF3.747
aF7.78
aF2.216
aF3.065
aF5.959
aF4.05
aF5.757
aF5.084
asI143
(lp72
F8.868
aF10.547
aF9.833
aF5.225
aF5.329
aF4.245
aF5.595
aF3.414
aF4.684
aF2.76
aF6.086
aF6.32
aF10.257
aF3.916
aF2.044
aF1.642
aF11.255
aF3.652
aF7.044
aF3.624
aF2.719
aF5.924
aF3.432
aF2.102
aF2.024
aF5.979
aF5.149
aF10.76
aF5.883
aF4.327
aF1.952
aF13.481
aF8.49
aF2.256
aF1.634
aF4.719
aF11.035
aF9.129
aF3.374
aF8.672
aF3.279
aF3.554
aF4.897
aF3.723
aF2.462
aF7.739
aF1.137
aF6.812
aF7.886
aF3.612
aF0.938
aF3.474
aF2.769
aF8.538
aF4.158
aF1.909
aF2.664
aF7.289
aF6.559
asI144
(lp73
F3.124
aF6.41
aF6.431
aF3.31
aF5.426
aF4.593
aF3.525
aF4.829
aF7.285
aF0.889
aF2.99
aF5.47
aF4.339
aF3.878
aF3.678
aF4.279
aF6.122
aF4.989
aF4.089
aF4.752
aF3.455
aF1.692
aF3.498
aF2.443
aF1.925
aF5.491
aF1.995
aF1.308
aF6.792
aF16.354
aF5.848
aF2.813
aF4.479
aF6.948
aF10.772
aF4.25
aF4.344
aF4.29
aF3.754
aF5.437
aF2.68
aF4.417
aF2.719
aF4.526
aF1.177
aF2.75
aF1.789
aF2.007
aF7.291
aF2.921
aF7.68
aF3.65
aF3.331
aF2.763
aF7.24
asI149
(lp74
F2.893
aF2.585
aF2.602
aF2.63
aF1.869
aF1.912
aF0.856
aF3.391
aF1.009
aF3.446
aF1.716
aF1.206
aF1.97
aF6.05
aF1.166
aF4.162
aF1.568
aF1.738
aF6.155
aF3.417
aF7.043
aF5.374
aF3.746
aF4.642
aF6.44
aF7.578
aF3.77
aF5.245
aF1.755
aF4.401
aF7.471
aF2.009
aF2.782
aF0.046
aF1.815
aF1.89
aF1.721
aF5.372
aF2.486
aF5.27
aF1.59
aF0.723
aF3.06
aF5.063
aF2.607
aF3.844
aF5.092
aF5.625
aF4.369
aF5.596
aF5.622
aF14.67
aF4.902
aF6.589
aF2.006
aF8.056
aF9.631
aF5.09
aF4.343
aF2.801
aF3.736
aF1.882
aF7.857
aF3.279
aF4.544
aF2.862
aF4.648
asI150
(lp75
F4.472
aF6.116
aF5.423
aF3.193
aF5.204
aF0.356
aF6.288
aF2.48
aF7.822
aF1.805
aF3.304
aF3.468
aF5.214
aF3.964
aF8.509
aF3.702
aF1.821
aF6.511
aF4.411
aF1.615
aF5.66
aF4.518
aF3.01
aF4.494
aF7.399
aF6.188
aF5.952
aF6.014
aF2.747
aF7.694
aF3.92
aF5.946
aF3.438
aF4.025
aF5.989
aF2.118
aF1.798
aF4.158
aF9.327
aF5.342
aF4.071
aF2.827
aF4.304
aF2.856
aF7.348
aF5.582
aF5.903
aF6.429
aF4.301
aF9.031
aF7.279
aF9.871
aF3.551
aF3.34
aF2.084
aF7.216
asI151
(lp76
F5.246
aF2.512
aF5.995
aF3.05
aF1.022
aF1.916
aF2.655
aF4.241
aF6.508
aF3.18
aF2.229
aF4.361
aF3.259
aF4.102
aF7.225
aF2.669
aF3.541
aF4.833
aF0.846
aF7.73
aF7.65
aF4.807
aF14.244
aF3.489
aF2.764
aF3.028
aF2.553
aF2.855
aF3.843
aF6.01
aF3.649
aF1.638
aF5.774
aF1.944
aF5.544
aF8.395
aF4.019
aF0.85
aF7.386
aF2.484
aF9.441
aF5.403
aF3.419
aF7.75
aF0.935
aF2.661
aF6.781
aF1.1
aF1.407
aF1.946
aF4.013
aF2.705
aF3.378
aF5.029
aF10.537
aF7.049
aF6.677
aF3.676
aF4.897
aF1.144
asI152
(lp77
F5.1
aF7.006
aF2.823
aF3.862
aF9.953
aF6.312
aF5.484
aF4.441
aF4.673
aF4.522
aF2.461
aF2.832
aF7.766
aF6.006
aF6.026
aF6.674
aF11.491
aF4.632
aF2.309
aF3.923
aF2.152
aF4.713
aF1.928
aF4.405
aF4.707
aF5.25
aF5.762
aF3.728
aF3.473
aF8.744
aF12.565
aF2.564
aF5.198
aF4.03
aF5.032
aF5.66
aF5.726
aF3.123
aF4.629
aF2.657
aF2.488
aF5.05
aF2.355
aF3.674
aF6.263
aF6.746
aF4.687
aF4.492
aF2.599
aF2.732
aF3.399
aF2.816
aF9.559
aF1.16
aF4.868
aF3.622
aF1.939
aF3.166
asI153
(lp78
F6.182
aF3.055
aF3.801
aF8.565
aF3.809
aF6.624
aF4.54
aF2.081
aF7.151
aF2.565
aF7.807
aF7.188
aF4.224
aF1.67
aF5.003
aF6.125
aF1.646
aF1.849
aF2.669
aF2.901
aF3.519
aF0.21
aF1.837
aF4.484
aF6.431
aF1.66
aF4.952
aF0.1
aF3.429
aF6.113
aF3.525
aF4.972
aF10.316
aF5.862
aF9.759
aF2.923
aF5.798
aF1.228
aF2.709
aF3.656
aF0.276
aF3.417
aF3.524
aF6.696
aF2.235
aF2.525
aF2.042
aF3.671
aF3.041
aF4.473
aF2.625
aF3.575
aF6.959
aF7.075
aF9.986
aF4.479
aF11.275
aF8.702
asI161
(lp79
F0.052
aF9.363
aF2.315
aF3.019
aF5.952
aF4.43
aF3.967
aF3.242
aF1.869
aF2.992
aF4.289
aF4.601
aF8.134
aF6.527
aF2.146
aF9.403
aF5.941
aF4.852
aF2.964
aF4.602
aF4.404
aF2.817
aF6.408
aF2.37
aF2.006
aF8.541
aF1.918
aF0.835
aF2.453
aF2.686
aF2.477
aF2.494
aF6.295
aF5.286
aF5.494
aF2.568
aF3.207
aF4.25
aF3.455
aF7.185
aF2.715
aF9.325
aF1.155
aF6.98
aF3.584
aF6.624
aF3.479
aF4.681
aF4.578
aF3.24
aF6.13
aF3.796
aF7.127
asI162
(lp80
F3.569
aF5.57
aF13.868
aF13.218
aF4.689
aF4.467
aF7.834
aF1.729
aF4.18
aF14.761
aF5.166
aF3.454
aF8.589
aF3.493
aF2.252
aF6.294
aF6.638
aF2.878
aF1.876
aF4.089
aF2.903
aF6.588
aF3.318
aF0.885
aF5.122
aF0.631
aF6.749
aF4.798
aF11.367
aF3.941
aF7.167
aF6.535
aF2.991
aF2.069
aF2.741
aF2.74
aF4.689
aF4.061
aF2.931
aF5.488
aF6.929
aF2.275
aF7.999
aF1.347
aF2.399
aF3.564
aF4.969
aF1.306
aF5.082
asI163
(lp81
F6.244
aF6.93
aF5.21
aF8.063
aF5.251
aF3.462
aF5.816
aF2.322
aF8.073
aF5.137
aF2.859
aF3.531
aF0.952
aF3.545
aF0.869
aF6.857
aF0.126
aF3.946
aF6.994
aF10.972
aF8.495
aF1.701
aF3.644
aF13.639
aF6.716
aF2.185
aF9.889
aF1.278
aF4.414
aF8.713
aF5.317
aF3.24
aF5.556
aF7.896
aF5.994
aF5.556
aF1.2
aF3.272
aF1.124
aF5.127
aF2.642
aF4.797
aF5.842
aF3.864
aF3.864
aF2.753
aF5.947
aF4.815
aF3.808
aF6.126
aF2.964
aF4.097
aF5.534
aF0.311
aF2.523
aF1.999
asI164
(lp82
F4.224
aF4.339
aF3.575
aF5.308
aF7.604
aF5.518
aF5.678
aF6.647
aF2.684
aF5.905
aF6.168
aF2.59
aF9.02
aF1.838
aF4.793
aF8.764
aF3.393
aF2.543
aF8.895
aF7.919
aF7.307
aF11.937
aF6.889
aF9.312
aF9.355
aF9.626
aF7.327
aF4.391
aF2.996
aF4.719
aF3.757
aF7.063
aF4.162
aF3.424
aF3.564
aF8.003
aF5.992
aF0.466
aF9.765
aF6.934
aF3.465
aF7.259
aF9.198
aF7.697
aF4.455
aF7.611
aF10.747
aF9.059
aF10.372
aF7.616
aF6.062
aF10.337
asI168
(lp83
F2.719
aF2.684
aF1.73
aF2.553
aF1.084
aF1.455
aF4.291
aF5.052
aF4.912
aF5.921
aF6.106
aF8.467
aF3.346
aF6.291
aF4.692
aF7.866
aF2.363
aF1.98
aF4.556
aF1.897
aF7.403
aF4.141
aF4.994
aF5.27
aF6.143
aF6.44
aF7.226
aF2.188
aF6.18
aF2.815
aF6.118
aF2.003
aF6.852
aF7.515
aF6.066
aF9.406
aF2.326
aF1.568
aF2.483
aF5.661
aF1.97
aF3.158
aF4.237
aF6.247
aF4.573
aF4.64
aF3.539
aF5.243
aF3.465
aF7.137
aF8.104
aF8.45
aF2.244
aF6.268
aF6.485
aF2.383
aF7.55
aF8.128
aF4.53
aF6.767
asI169
(lp84
F6.079
aF5.393
aF5.173
aF9.583
aF6.588
aF3.355
aF4.053
aF5.014
aF3.794
aF1.031
aF0.897
aF6.924
aF6.131
aF1.862
aF4.551
aF2.933
aF2.523
aF4.841
aF4.935
aF3.609
aF2.62
aF3.209
aF8.295
aF5.787
aF3.756
aF2.263
aF0.938
aF3.732
aF10.43
aF2.897
aF5.108
aF4.359
aF4.287
aF2.857
aF12.864
aF6.025
aF9.082
aF2.851
aF3.205
aF3.409
aF1.837
aF2.645
aF3.687
aF2.838
aF3.809
aF5.475
aF1.846
aF4.976
aF3.014
aF5.377
aF7.241
aF5.163
aF5.051
aF4.044
aF4.886
aF2.92
aF3.901
aF2.802
asI170
(lp85
F1.908
aF5.334
aF8.329
aF6.129
aF3.585
aF0.83
aF1.678
aF10.569
aF3.281
aF3.986
aF4.156
aF9.484
aF3.399
aF4.581
aF5.435
aF1.849
aF1.999
aF4.181
aF6.596
aF4.129
aF4.317
aF5.521
aF5.312
aF9.524
aF5.087
aF3.452
aF6.033
aF3.351
aF5.274
aF5.759
aF5.883
aF1.734
aF3.847
aF4.695
aF4.237
aF4.425
aF8.463
aF5.793
aF3.119
aF3.542
aF7.74
aF4.694
aF5.859
aF3.584
aF1.834
aF4.379
aF1.227
aF1.481
aF5.203
aF4.023
aF5.326
aF4.021
aF8.398
aF2.222
aF4.196
aF2.818
aF1.235
aF4.534
aF3.664
aF4.687
aF8.109
asI173
(lp86
F4.427
aF3.483
aF4.223
aF4.807
aF1.993
aF3.835
aF1.237
aF2.969
aF1.761
aF4.83
aF4.258
aF1.096
aF1.862
aF2.825
aF4.235
aF2.889
aF6.776
aF4.332
aF8.311
aF3.431
aF5.934
aF4.04
aF3.943
aF2.425
aF5.618
aF0.399
aF5.264
aF5.9
aF3.338
aF7.545
aF7.371
aF4.868
aF1.031
aF6.271
aF2.703
aF9.542
aF2.846
aF1.76
aF7.641
aF6.07
aF5.198
aF2.609
aF6.681
aF1.852
aF2.932
aF1.993
aF4.341
aF8.26
aF5.273
aF7.513
aF2.997
aF7.46
aF3.507
aF6.874
asI175
(lp87
F7.79
aF5.197
aF2.549
aF5.07
aF6.764
aF6.321
aF1.287
aF12.054
aF8.151
aF2.176
aF4.768
aF9.922
aF9.731
aF4.377
aF8.969
aF6.352
aF6.151
aF5.56
aF11.494
aF2.592
aF6.774
aF6.501
aF3.518
aF3.761
aF1.73
aF3.794
aF3.601
aF1.48
aF6.447
aF2.993
aF2.996
aF2.613
aF5.372
aF3.996
aF5.103
aF2.785
aF5.355
aF2.548
aF3.253
aF4.561
aF0.786
aF4.757
aF1.966
aF6.002
aF3.651
aF1.876
aF10.918
aF3.618
aF6.952
aF4.35
aF12.057
aF9.626
aF4.34
aF4.743
aF6.919
aF11.538
aF4.586
aF4.405
aF3.981
aF2.133
aF11.314
aF3.542
asI176
(lp88
F2.202
aF3.342
aF2.813
aF4.309
aF2.616
aF0.992
aF2.751
aF0.154
aF3.411
aF3.848
aF4.368
aF1.909
aF1.767
aF1.759
aF1.91
aF5.181
aF6.928
aF5.854
aF7.402
aF2.647
aF3.645
aF4.631
aF2.399
aF4.5
aF1.01
aF4.739
aF2.96
aF2.243
aF5.036
aF8.118
aF5.611
aF2.055
aF5.77
aF5.68
aF7.988
aF4.177
aF0.95
aF4.554
aF2.653
aF4.994
aF7.394
aF7.449
aF10.504
aF1.929
aF7.749
aF6.897
aF4.184
aF4.007
aF3.794
aF3.823
aF3.024
aF5.109
aF4.362
aF3.079
aF2.081
aF0.396
aF1.72
aF2.945
aF3.989
aF2.904
aF3.619
aF3.191
aF3.669
aF1.184
aF5.927
aF5.853
aF6.7
aF4.199
aF4.395
aF3.474
aF1.887
asI177
(lp89
F3.486
aF3.805
aF4.386
aF7.319
aF10.308
aF5.22
aF1.904
aF8.846
aF8.669
aF6.948
aF3.729
aF4.407
aF2.013
aF6.032
aF4.666
aF6.292
aF9.06
aF2.62
aF6.558
aF3.627
aF2.798
aF4.737
aF6.597
aF8.215
aF3.764
aF4.716
aF1.685
aF1.959
aF4.776
aF3.316
aF5.164
aF2.132
aF7.963
aF1.231
aF2.502
aF3.523
aF5.811
aF8.395
aF5.122
aF9.989
aF6.515
aF4.968
aF8.501
aF4.247
aF1.282
aF0.574
aF5.377
aF2.456
aF9.441
aF3.108
aF4.423
asI179
(lp90
F12.163
aF5.018
aF2.992
aF0.622
aF4.482
aF2.149
aF4.772
aF1.189
aF6.091
aF6.075
aF6.132
aF2.526
aF5.454
aF3.313
aF6.355
aF2.161
aF9.689
aF6.168
aF3.519
aF4.229
aF4.143
aF3.298
aF5.315
aF3.804
aF3.629
aF11.838
aF11.369
aF3.473
aF3.587
aF5.09
aF3.608
aF4.252
aF4.949
aF5.431
aF2.372
aF2.024
aF4.133
aF5.064
aF2.671
aF5.673
aF0.214
aF4.773
aF12.67
aF3.257
aF9.117
aF2.995
asI182
(lp91
F11.408
aF6.117
aF5.302
aF3.561
aF4.065
aF12.517
aF4.537
aF2.816
aF6.549
aF12.219
aF6.19
aF4.331
aF7.328
aF7.136
aF6.862
aF5.308
aF4.771
aF7.947
aF3.567
aF6.673
aF5.329
aF5.481
aF5.051
aF8.425
aF4.642
aF3.729
aF7.393
aF8.674
aF3.031
aF2.672
aF3.63
aF1.657
aF8.975
aF4.844
aF8.572
aF5.203
aF2.653
aF3.684
aF6.804
aF5.586
aF5.307
aF8.53
aF3.003
aF5.237
aF3.916
aF8.227
aF8.039
aF6.153
aF7.018
aF3.824
aF5.098
aF4.953
aF10.955
aF8.044
aF8.577
aF3.199
asI186
(lp92
F4.923
aF5.043
aF4.389
aF4.617
aF9.728
aF7.215
aF3.718
aF4.429
aF10.551
aF3.848
aF7.775
aF5.121
aF2.169
aF2.636
aF1.357
aF1.931
aF4.611
aF9.606
aF4.291
aF7.454
aF2.854
aF4.285
aF8.709
aF4.113
aF7.97
aF5.408
aF8.713
aF1.31
aF2.359
aF2.012
aF3.294
aF5.6
aF8.508
aF7.331
aF6.417
aF2.75
aF2.287
aF3.45
aF8.844
aF14.394
aF6.799
aF6.7
aF3.84
aF7.009
aF5.725
aF4.915
asI187
(lp93
F3.786
aF1.947
aF8.409
aF4.965
aF2.281
aF3.182
aF3.315
aF2.581
aF6.113
aF5.417
aF11.158
aF8.214
aF4.519
aF0.962
aF6.975
aF4.553
aF4.242
aF8.116
aF9.18
aF3.517
aF5.081
aF2.465
aF5.549
aF4.277
aF6.448
aF4.446
aF4.217
aF6.87
aF9.24
aF7.289
aF5.593
aF4.612
aF10.69
aF5.379
aF6.143
aF7.615
aF4.156
aF6.103
aF3.706
aF1.686
aF10.004
aF3.918
aF4.017
aF5.422
aF4.884
aF12.741
aF3.041
aF3.551
aF1.059
aF2.287
aF8.174
aF3.655
aF2.61
aF4.141
aF7.542
aF4.054
aF4.753
aF3.019
aF6.997
asI188
(lp94
F1.571
aF14.099
aF4.897
aF6.161
aF7.061
aF7.613
aF2.897
aF5.279
aF1.727
aF6.07
aF5.091
aF2.429
aF5.905
aF6.945
aF2.409
aF8.857
aF4.235
aF4.275
aF6.234
aF3.84
aF1.686
aF2.853
aF6.794
aF3.25
aF9.526
aF4.651
aF1.016
aF4.383
aF5.894
aF4.372
aF5.8
aF2.635
aF5.442
aF5.749
aF10.012
aF1.135
aF9.868
aF3.639
aF13.113
aF10.408
aF5.618
aF8.365
aF6.967
aF5.612
aF4.915
aF6.931
aF2.638
aF7.49
aF6.147
aF7.533
aF9.585
aF2.704
aF2.155
aF11.153
aF4.966
aF5.39
aF3.816
aF5.611
aF5.873
aF2.805
aF3.577
aF3.464
aF3.069
aF1.908
asI190
(lp95
F2.5
aF3.616
aF5.184
aF2.743
aF3.677
aF2.878
aF6.631
aF6.008
aF6.743
aF2.852
aF2.167
aF1.691
aF10.158
aF8.748
aF3.497
aF3.392
aF0.81
aF5.34
aF5.889
aF3.895
aF5.902
aF3.19
aF6.266
aF8.69
aF5.419
aF5.274
aF5.032
aF3.598
aF6.291
aF10.031
aF6.508
aF5.174
aF2.679
aF4.63
aF5.533
aF6.386
aF7.967
aF4.183
aF4.501
aF8.274
aF6.968
aF4.279
aF5.583
aF2.522
aF7.276
aF3.516
aF3.479
aF1.904
aF4.86
aF6.93
aF2.631
aF1.72
asI193
(lp96
F5.821
aF2.261
aF3.49
aF10.163
aF4.29
aF7.016
aF4.943
aF4.415
aF1.136
aF8.206
aF4.329
aF4.683
aF4.109
aF7.479
aF4.454
aF5.649
aF3.798
aF7.228
aF2.469
aF1.72
aF3.982
aF3.45
aF3.798
aF1.138
aF2.519
aF8.245
aF5.527
aF5.462
aF4.055
aF3.987
aF5.305
aF4.305
aF2.559
aF3.16
aF4.051
aF4.888
aF10.384
aF7.168
aF2.92
aF1.91
aF1.531
aF8.677
aF4.063
aF5.77
aF1.893
aF6.893
aF3.853
aF2.944
aF5.411
aF6.37
aF12.705
aF5.829
aF6.945
aF3.547
aF7.7
aF2.219
aF5.836
aF3.658
aF9.653
aF3.6
aF2.701
aF5.618
asI194
(lp97
F7.812
aF1.587
aF1.315
aF9.155
aF0.302
aF7.213
aF4.338
aF9.713
aF3.908
aF3.375
aF4.406
aF4.808
aF8.005
aF5.196
aF2.09
aF8.303
aF5.287
aF3.18
aF4.362
aF4.177
aF2.966
aF3.775
aF12.62
aF3.828
aF8.33
aF6.989
aF5.943
aF5.39
aF3.446
aF4.556
aF9.927
aF4.403
aF2.63
aF15.068
aF3.32
aF6.492
aF7.288
aF3.123
aF7.169
aF4.587
aF1.298
aF5.441
aF12.786
aF6.769
aF8.827
aF7.988
aF3.395
aF4.069
aF7.731
aF7.896
aF4.707
aF5.417
aF4.579
aF2.571
aF4.465
aF13.503
aF10.303
aF3.576
aF4.614
asI195
(lp98
F6.993
aF5.337
aF4.505
aF13.693
aF6.553
aF5.189
aF1.175
aF8.67
aF6.127
aF2.488
aF1.377
aF2.998
aF2.101
aF7.43
aF5.265
aF4.933
aF0.864
aF2.25
aF8.872
aF7.373
aF7.339
aF6.552
aF5.601
aF2.277
aF5.778
aF4.534
aF9.471
aF11.22
aF6.724
aF4.194
aF6.893
aF1.157
aF2.692
aF7.628
aF3.567
aF2.482
aF4.845
aF6.962
aF8.631
aF7.662
aF4.876
aF1.846
aF1.996
aF5.204
aF6.663
aF9.633
aF6.356
aF7.526
aF10.094
aF5.417
asI198
(lp99
F4.189
aF5.388
aF9.603
aF6.123
aF5.869
aF2.218
aF2.293
aF7.373
aF10.133
aF4.159
aF2.594
aF8.714
aF4.565
aF6.95
aF5.914
aF5.034
aF9.327
aF2.822
aF3.999
aF4.947
aF5.838
aF8.389
aF3.396
aF1.899
aF6.258
aF4.766
aF4.984
aF3.487
aF3.412
aF4.647
aF4.48
aF3.989
aF8.061
aF3.866
aF4.682
aF7.015
aF5.456
aF3.483
aF3.379
aF6.468
aF4.252
aF8.732
aF15.833
aF1.133
aF4.466
aF2.851
aF11.305
aF8.812
aF5.033
aF5.948
aF6.141
aF3.719
aF6.96
aF2.135
aF1.84
aF3.796
aF2.783
aF1.158
aF5.371
aF6.12
aF3.646
aF4.073
aF5.288
aF17.431
aF6.217
asI200
(lp100
F3.597
aF8.182
aF5.045
aF2.075
aF9.692
aF9.357
aF11.861
aF0.93
aF6.259
aF4.234
aF2.078
aF6.383
aF4.379
aF9.183
aF6.677
aF12.857
aF7.513
aF7.611
aF4.697
aF6.187
aF4.403
aF5.242
aF5.0
aF4.451
aF7.14
aF8.719
aF8.061
aF4.518
aF4.342
aF4.351
aF2.673
aF1.153
aF3.757
aF15.622
aF11.299
aF3.495
aF4.102
aF7.461
aF3.854
aF6.436
aF8.02
aF7.25
aF14.014
aF7.299
aF2.585
aF5.787
aF6.448
aF3.725
aF3.434
as.