(dp0
I0
I1
sI1
I4
sI2
I5
sI3
I8
sI4
I10
sI5
I12
sI6
I14
sI7
I16
sI8
I17
sI9
I20
sI10
I22
sI11
I26
sI12
I27
sI13
I29
sI14
I30
sI15
I32
sI16
I34
sI17
I36
sI18
I38
sI19
I40
sI20
I42
sI21
I43
sI22
I45
sI23
I46
sI24
I50
sI25
I52
sI26
I54
sI27
I56
sI28
I58
sI29
I60
sI30
I62
sI31
I64
sI32
I66
sI33
I67
sI34
I68
sI35
I69
sI36
I74
sI37
I75
sI38
I76
sI39
I77
sI40
I78
sI41
I83
sI42
I84
sI43
I85
sI44
I86
sI45
I91
sI46
I92
sI47
I93
sI48
I94
sI49
I99
sI50
I100
sI51
I101
sI52
I103
sI53
I107
sI54
I108
sI55
I109
sI56
I110
sI57
I115
sI58
I116
sI59
I117
sI60
I121
sI61
I122
sI62
I123
sI63
I124
sI64
I129
sI65
I130
sI66
I133
sI67
I134
sI68
I135
sI69
I139
sI70
I140
sI71
I143
sI72
I144
sI73
I149
sI74
I150
sI75
I151
sI76
I152
sI77
I153
sI78
I161
sI79
I162
sI80
I163
sI81
I164
sI82
I168
sI83
I169
sI84
I170
sI85
I173
sI86
I175
sI87
I176
sI88
I177
sI89
I179
sI90
I182
sI91
I186
sI92
I187
sI93
I188
sI94
I190
sI95
I193
sI96
I194
sI97
I195
sI98
I198
sI99
I200
s.