(dp0
I1
(lp1
I94
aI88
aI151
aI96
aI137
aI91
aI120
aI99
aI71
aI111
aI132
aI199
aI174
aI125
aI82
aI145
aI254
aI161
aI118
aI213
aI125
aI163
aI101
aI127
aI171
aI92
aI102
aI230
aI69
aI109
aI165
aI156
aI96
aI131
aI167
aI300
asI4
(lp2
I94
aI119
aI135
aI126
aI135
aI246
aI144
aI169
aI122
aI127
aI83
aI110
aI127
aI139
aI166
aI137
aI158
aI180
aI114
aI148
aI87
aI83
aI128
aI119
aI157
aI172
aI134
aI150
aI167
asI5
(lp3
I168
aI118
aI111
aI148
aI145
aI189
aI168
aI143
aI141
aI105
aI96
aI144
aI129
aI95
aI96
aI119
aI177
aI148
aI199
aI259
aI129
aI96
aI168
aI142
aI170
aI119
aI139
aI84
aI134
aI68
aI177
aI130
aI194
aI156
aI89
aI139
aI228
aI105
aI130
aI168
aI102
aI142
aI123
aI91
aI174
aI152
aI164
aI110
aI184
aI140
aI152
aI175
aI169
aI162
aI174
aI148
asI8
(lp4
I63
aI85
aI159
aI236
aI87
aI117
aI94
aI90
aI112
aI87
aI58
aI77
aI55
aI120
aI110
aI102
aI118
aI74
aI125
aI195
aI93
aI53
aI61
aI117
aI106
aI116
aI75
aI76
aI90
aI85
aI80
aI133
aI125
aI154
aI73
aI78
aI93
aI96
aI55
aI145
aI127
aI97
aI80
aI64
aI114
aI142
aI154
asI10
(lp5
I137
aI172
aI193
aI98
aI144
aI126
aI93
aI141
aI133
aI159
aI117
aI158
aI128
aI153
aI201
aI339
aI124
aI95
aI265
aI165
aI149
aI156
aI124
aI118
aI110
aI188
asI12
(lp6
I233
aI241
aI253
aI194
aI111
aI65
aI80
aI276
aI109
aI84
aI162
aI128
aI122
aI84
aI86
aI123
aI138
aI164
aI61
aI95
aI98
aI233
aI194
aI83
aI126
aI78
aI113
aI92
aI83
aI74
aI90
aI96
aI179
aI94
aI74
aI96
aI121
aI138
aI79
aI76
aI63
aI154
aI83
aI140
aI96
aI94
aI106
aI204
aI135
asI14
(lp7
I138
aI155
aI181
aI140
aI151
aI137
aI184
aI175
aI236
aI142
aI196
aI121
aI177
aI134
aI119
aI216
aI208
aI167
aI207
aI106
aI170
aI214
aI181
aI193
aI136
aI112
aI167
aI147
aI183
aI180
aI151
aI173
aI120
aI182
aI245
aI153
aI146
aI162
aI145
aI126
aI118
asI16
(lp8
I271
aI135
aI212
aI245
aI124
aI112
aI149
aI172
aI158
aI72
aI193
aI155
aI127
aI128
aI164
aI127
aI102
aI168
aI115
aI80
aI76
aI107
aI129
aI122
aI101
aI157
aI112
aI155
aI177
aI279
aI259
aI179
aI223
aI209
aI152
aI108
aI150
aI134
aI189
aI135
aI110
asI17
(lp9
I183
aI165
aI172
aI70
aI119
aI170
aI217
aI144
aI178
aI116
aI163
aI180
aI184
aI152
aI146
aI193
aI211
aI141
aI115
aI172
aI189
aI192
aI122
aI122
aI221
aI262
aI170
aI167
aI171
aI171
aI145
aI215
aI175
aI131
aI248
aI187
aI229
asI20
(lp10
I235
aI117
aI213
aI165
aI171
aI155
aI192
aI224
aI155
aI178
aI182
aI125
aI183
aI173
aI155
aI190
aI182
aI176
aI119
aI119
aI121
aI237
aI193
aI142
aI154
aI190
aI142
aI144
aI205
aI119
aI191
aI125
aI159
aI154
aI196
asI22
(lp11
I178
aI173
aI207
aI227
aI243
aI186
aI188
aI118
aI136
aI242
aI174
aI199
aI129
aI168
aI168
aI149
aI158
aI145
aI132
aI190
aI154
aI220
aI158
aI190
aI147
aI123
aI250
aI273
asI26
(lp12
I169
aI195
aI242
aI176
aI142
aI198
aI209
aI202
aI116
aI108
aI216
aI227
aI331
aI232
aI145
aI302
aI116
aI165
aI130
aI142
aI178
aI179
aI248
aI186
aI238
aI166
aI215
aI105
aI185
aI141
aI160
aI278
aI221
aI178
aI194
aI152
aI169
aI172
aI150
asI27
(lp13
I155
aI123
aI116
aI200
aI187
aI259
aI171
aI204
aI251
aI177
aI269
aI154
aI193
aI296
aI284
aI151
aI257
aI159
aI137
aI179
aI275
aI218
aI152
aI186
aI213
aI165
aI162
aI115
aI120
aI141
aI197
aI199
aI164
aI220
asI29
(lp14
I148
aI134
aI149
aI199
aI142
aI120
aI159
aI151
aI209
aI341
aI280
aI115
aI99
aI160
aI189
aI131
aI182
aI110
aI142
aI143
aI106
aI130
aI124
aI190
aI109
aI174
aI119
aI131
aI148
aI117
aI113
aI128
aI123
aI144
aI96
aI127
aI180
asI30
(lp15
I166
aI239
aI149
aI200
aI124
aI138
aI139
aI172
aI155
aI225
aI173
aI193
aI171
aI129
aI152
aI181
aI109
aI222
aI133
aI261
aI156
aI150
aI227
aI145
aI155
aI261
aI217
aI189
aI291
aI221
aI161
aI121
aI213
asI32
(lp16
I203
aI131
aI163
aI188
aI137
aI249
aI160
aI223
aI167
aI223
aI110
aI207
aI158
aI116
aI195
aI183
aI187
aI248
aI224
aI158
aI135
aI137
aI244
aI171
aI215
aI252
aI170
aI241
aI190
aI187
asI34
(lp17
I147
aI124
aI231
aI155
aI216
aI130
aI152
aI254
aI183
aI143
aI163
aI271
aI106
aI127
aI222
aI234
aI219
aI152
aI156
aI123
aI265
aI176
aI99
aI121
aI131
aI238
aI186
aI218
aI125
aI134
aI183
asI36
(lp18
I176
aI118
aI161
aI229
aI126
aI196
aI172
aI156
aI159
aI219
aI195
aI139
aI190
aI137
aI170
aI123
aI170
aI135
aI195
aI248
aI128
aI175
aI204
aI149
aI194
aI145
aI132
aI258
aI194
asI38
(lp19
I175
aI189
aI207
aI127
aI196
aI169
aI160
aI148
aI142
aI231
aI119
aI157
aI161
aI237
aI147
aI255
aI200
aI169
aI144
aI180
aI105
aI108
aI105
aI175
aI187
aI181
aI208
aI263
aI257
aI275
aI280
asI40
(lp20
I286
aI208
aI245
aI176
aI263
aI209
aI165
aI139
aI171
aI190
aI178
aI167
aI167
aI247
aI210
aI195
aI149
aI95
aI151
aI144
aI214
aI266
aI298
aI177
aI160
aI143
aI205
aI243
aI229
asI42
(lp21
I203
aI323
aI245
aI194
aI188
aI171
aI231
aI124
aI168
aI126
aI160
aI164
aI271
aI224
aI207
aI161
aI193
aI74
aI119
aI111
aI70
aI247
aI249
aI203
aI184
aI185
aI201
aI238
aI201
aI170
aI129
asI43
(lp22
I299
aI183
aI126
aI150
aI182
aI214
aI167
aI131
aI224
aI183
aI215
aI142
aI213
aI231
aI136
aI145
aI113
aI142
aI70
aI145
aI255
aI277
aI117
aI179
aI150
aI351
aI262
aI236
aI188
aI275
aI186
aI194
aI122
aI268
aI135
asI45
(lp23
I204
aI153
aI209
aI122
aI157
aI150
aI232
aI132
aI150
aI276
aI244
aI279
aI248
aI350
aI116
aI149
aI164
aI129
aI125
aI124
aI149
aI216
aI118
aI176
aI131
aI240
aI137
aI188
aI291
aI211
aI182
aI165
aI156
aI162
aI192
aI250
aI120
asI46
(lp24
I126
aI190
aI234
aI182
aI141
aI171
aI146
aI331
aI215
aI164
aI175
aI207
aI178
aI299
aI137
aI147
aI198
aI178
aI223
aI227
aI105
aI166
aI331
aI195
aI212
aI140
aI149
aI287
aI152
aI232
aI123
aI147
asI50
(lp25
I129
aI139
aI152
aI133
aI126
aI148
aI137
aI174
aI175
aI160
aI164
aI195
aI183
aI173
aI234
aI144
aI167
aI153
aI162
aI104
aI155
aI269
aI230
aI143
aI129
aI177
aI139
aI131
aI181
aI202
aI153
aI363
aI223
aI166
aI130
asI52
(lp26
I234
aI239
aI286
aI145
aI211
aI238
aI172
aI128
aI152
aI191
aI250
aI228
aI375
aI173
aI146
aI311
aI161
aI211
aI136
aI164
aI206
aI203
aI182
aI195
aI200
aI206
aI147
aI181
aI173
aI226
aI243
aI302
asI54
(lp27
I139
aI257
aI156
aI231
aI207
aI154
aI157
aI249
aI245
aI150
aI197
aI195
aI223
aI211
aI157
aI68
aI277
aI157
aI128
aI135
aI129
aI133
aI220
aI160
aI184
aI203
aI140
aI237
aI130
aI352
aI194
aI164
aI226
aI172
aI138
aI218
aI210
aI208
aI237
aI296
aI201
aI288
aI208
aI137
aI115
aI232
aI200
aI198
asI56
(lp28
I141
aI276
aI261
aI186
aI179
aI222
aI178
aI218
aI268
aI310
aI150
aI162
aI142
aI123
aI201
aI142
aI138
aI176
aI150
aI171
aI167
aI121
aI142
aI175
aI242
aI207
aI177
aI63
aI153
aI161
aI333
aI124
aI156
aI193
aI204
aI139
aI143
aI194
aI219
aI229
aI235
aI288
asI58
(lp29
I181
aI109
aI207
aI155
aI159
aI126
aI154
aI273
aI247
aI207
aI188
aI237
aI171
aI171
aI197
aI190
aI136
aI189
aI203
aI179
aI162
aI147
aI197
aI305
aI129
aI208
aI325
aI207
aI159
aI140
aI131
aI130
aI144
aI129
aI166
aI79
aI101
aI163
aI222
aI132
aI130
aI255
aI419
aI171
aI161
aI144
asI60
(lp30
I110
aI182
aI107
aI80
aI101
aI140
aI245
aI237
aI233
aI340
aI168
aI124
aI160
aI132
aI241
aI217
aI222
aI157
aI73
aI111
aI217
aI129
aI142
aI162
aI161
aI164
aI259
aI180
aI142
aI126
aI141
aI191
aI152
aI192
aI196
aI123
aI114
aI212
aI209
aI156
aI179
aI148
aI129
aI162
aI161
aI161
aI123
aI334
aI158
aI207
aI187
aI93
asI62
(lp31
I137
aI147
aI170
aI176
aI113
aI186
aI209
aI148
aI264
aI173
aI104
aI122
aI148
aI180
aI267
aI256
aI119
aI106
aI167
aI146
aI152
aI137
aI150
aI105
aI186
aI274
aI262
aI301
aI165
aI164
aI123
aI189
aI193
aI188
aI155
aI262
aI182
aI157
aI211
aI168
aI178
aI87
aI120
aI174
aI222
aI144
aI129
aI186
aI257
aI284
aI171
aI166
aI127
aI289
asI64
(lp32
I232
aI165
aI172
aI180
aI189
aI137
aI159
aI121
aI211
aI158
aI175
aI160
aI183
aI97
aI168
aI135
aI179
aI194
aI163
aI130
aI142
aI145
aI188
aI162
aI160
aI204
aI202
aI200
aI164
aI119
aI197
aI260
aI159
aI184
aI135
aI191
aI145
aI151
aI178
aI141
aI162
aI131
aI222
aI195
aI268
aI171
aI268
aI168
aI165
aI137
aI142
aI291
aI199
aI211
aI195
aI254
aI197
aI185
aI153
asI66
(lp33
I206
aI334
aI337
aI250
aI299
aI220
aI176
aI260
aI212
aI267
aI314
aI220
aI202
aI256
aI186
aI223
aI284
aI327
aI206
aI380
aI265
aI182
aI199
aI161
aI260
aI295
aI238
aI208
aI210
aI158
aI376
aI149
aI166
aI257
aI265
aI222
aI168
aI191
aI149
aI145
aI161
aI249
aI179
aI255
aI258
aI155
aI172
aI216
aI338
aI187
aI166
aI226
aI258
aI251
aI159
aI227
aI195
asI67
(lp34
I259
aI251
aI215
aI263
aI243
aI257
aI257
aI187
aI172
aI235
aI309
aI300
aI237
aI201
aI223
aI184
aI200
aI157
aI137
aI155
aI233
aI155
aI382
aI82
aI210
aI79
aI217
aI293
aI148
aI222
aI334
aI245
aI325
aI226
aI154
aI293
aI130
aI150
aI265
aI358
aI171
aI272
aI224
aI280
aI174
aI244
aI165
aI241
asI68
(lp35
I241
aI202
aI209
aI210
aI237
aI204
aI184
aI179
aI166
aI181
aI210
aI245
aI195
aI150
aI166
aI162
aI244
aI195
aI161
aI206
aI181
aI136
aI249
aI294
aI194
aI258
aI229
aI279
aI180
aI196
aI206
aI229
aI330
aI234
aI198
aI252
aI207
aI224
aI279
aI256
aI248
aI146
aI221
aI187
aI258
asI69
(lp36
I206
aI177
aI203
aI229
aI273
aI275
aI253
aI193
aI155
aI293
aI183
aI160
aI140
aI162
aI244
aI187
aI208
aI188
aI237
aI240
aI212
aI186
aI198
aI250
aI154
aI166
aI296
aI208
aI272
aI295
aI193
aI212
aI285
aI224
aI182
aI169
aI199
aI223
aI199
aI231
aI216
asI74
(lp37
I177
aI200
aI208
aI83
aI247
aI134
aI138
aI142
aI194
aI176
aI105
aI218
aI94
aI95
aI96
aI112
aI144
aI92
aI149
aI262
aI235
aI146
aI310
aI131
aI202
aI149
aI171
aI232
aI134
aI169
aI148
aI117
aI111
aI151
aI89
aI92
aI172
aI94
aI202
aI203
aI248
aI89
aI100
aI120
aI243
aI180
aI170
aI169
aI201
aI126
aI227
aI158
aI210
aI202
asI75
(lp38
I235
aI411
aI277
aI140
aI192
aI184
aI212
aI113
aI142
aI216
aI228
aI239
aI163
aI114
aI220
aI162
aI144
aI159
aI213
aI155
aI168
aI206
aI132
aI210
aI94
aI307
aI219
aI212
aI273
aI273
aI243
aI203
aI161
aI176
aI281
aI124
aI285
aI450
aI90
asI76
(lp39
I151
aI122
aI218
aI170
aI128
aI143
aI136
aI178
aI213
aI127
aI209
aI190
aI136
aI271
aI267
aI265
aI189
aI129
aI148
aI108
aI126
aI226
aI194
aI296
aI125
aI146
aI162
aI162
aI132
aI116
aI115
aI125
aI209
aI201
aI117
aI267
aI169
aI126
aI233
aI136
aI146
aI79
aI138
aI123
aI119
aI142
aI180
aI133
aI147
aI218
aI158
aI228
aI182
aI150
aI154
asI77
(lp40
I125
aI155
aI88
aI144
aI200
aI230
aI252
aI184
aI137
aI166
aI118
aI258
aI158
aI363
aI155
aI239
aI187
aI221
aI261
aI153
aI167
aI147
aI114
aI111
aI163
aI234
aI181
aI159
aI106
aI181
aI167
aI136
aI175
aI218
aI214
aI169
aI124
aI183
aI188
aI137
aI151
aI173
aI226
asI78
(lp41
I116
aI146
aI137
aI203
aI170
aI218
aI125
aI200
aI192
aI280
aI247
aI196
aI119
aI192
aI220
aI218
aI167
aI263
aI192
aI126
aI194
aI156
aI201
aI79
aI87
aI166
aI200
aI249
aI148
aI219
aI477
aI167
aI179
aI169
aI238
aI126
aI129
aI109
aI159
aI200
aI121
aI335
aI158
aI189
aI97
aI173
aI248
aI275
aI147
aI207
aI101
aI416
aI210
aI202
aI136
aI121
aI198
aI232
aI149
aI187
aI199
aI171
asI83
(lp42
I229
aI165
aI182
aI151
aI177
aI104
aI178
aI162
aI197
aI277
aI113
aI119
aI130
aI133
aI140
aI127
aI87
aI134
aI162
aI176
aI199
aI106
aI84
aI117
aI110
aI174
aI162
aI181
aI192
aI143
aI193
aI164
aI109
aI131
aI198
aI185
aI173
aI125
aI161
aI223
aI171
aI123
aI188
aI125
aI174
aI121
aI238
aI112
aI190
aI113
aI144
aI179
aI102
aI155
aI66
aI204
aI113
asI84
(lp43
I110
aI180
aI143
aI172
aI102
aI246
aI212
aI148
aI266
aI196
aI121
aI217
aI151
aI146
aI141
aI125
aI314
aI216
aI400
aI185
aI156
aI219
aI176
aI134
aI110
aI201
aI283
aI204
aI111
aI117
aI191
aI228
aI194
aI173
aI240
aI294
aI184
aI164
aI158
aI151
aI251
aI189
aI155
aI172
aI168
aI286
aI177
aI243
aI204
aI208
aI284
aI196
asI85
(lp44
I174
aI131
aI276
aI209
aI218
aI107
aI135
aI149
aI212
aI140
aI87
aI137
aI197
aI205
aI174
aI178
aI182
aI199
aI116
aI131
aI222
aI168
aI203
aI177
aI167
aI115
aI156
aI209
aI129
aI165
aI146
aI155
aI217
aI119
aI132
aI128
aI201
aI169
aI132
aI161
aI234
aI103
aI111
aI194
asI86
(lp45
I179
aI139
aI141
aI118
aI150
aI230
aI178
aI239
aI218
aI151
aI108
aI156
aI376
aI99
aI274
aI201
aI152
aI266
aI131
aI178
aI178
aI166
aI223
aI179
aI166
aI123
aI212
aI135
aI160
aI275
aI153
aI202
aI214
aI135
aI181
aI184
aI112
aI152
aI137
aI135
aI264
aI136
aI168
aI149
asI91
(lp46
I257
aI197
aI203
aI200
aI284
aI148
aI219
aI145
aI185
aI130
aI102
aI174
aI125
aI162
aI239
aI164
aI139
aI234
aI201
aI176
aI203
aI118
aI145
aI171
aI158
aI130
aI180
aI193
aI216
aI170
aI160
aI166
aI197
aI170
aI199
aI261
aI165
aI269
aI184
aI123
aI224
aI224
aI112
asI92
(lp47
I206
aI221
aI155
aI179
aI160
aI211
aI217
aI257
aI181
aI219
aI168
aI182
aI337
aI243
aI184
aI222
aI131
aI271
aI137
aI151
aI124
aI257
aI229
aI167
aI160
aI234
aI169
aI239
aI115
aI214
aI166
aI205
aI197
aI298
aI259
aI246
aI279
aI227
aI239
asI93
(lp48
I191
aI150
aI237
aI111
aI102
aI93
aI163
aI125
aI167
aI126
aI101
aI160
aI189
aI152
aI184
aI205
aI222
aI306
aI127
aI255
aI118
aI280
aI114
aI245
aI248
aI271
aI236
aI162
aI203
aI147
aI263
aI141
aI136
aI165
aI174
aI105
aI233
aI197
aI222
aI250
aI139
aI168
aI150
aI142
aI175
aI150
aI81
aI150
aI217
asI94
(lp49
I212
aI194
aI234
aI89
aI164
aI161
aI170
aI202
aI273
aI254
aI286
aI176
aI147
aI193
aI178
aI158
aI198
aI179
aI199
aI155
aI209
aI151
aI147
aI138
aI165
aI265
aI130
aI317
aI263
aI206
aI232
aI166
aI119
aI181
aI259
aI177
aI147
aI233
aI201
aI63
aI160
aI251
aI144
aI278
asI99
(lp50
I244
aI207
aI188
aI117
aI193
aI183
aI140
aI142
aI164
aI129
aI228
aI147
aI240
aI136
aI143
aI219
aI209
aI133
aI165
aI144
aI159
aI260
aI183
aI246
aI253
aI187
aI212
aI109
aI198
aI213
aI311
aI137
aI246
aI245
aI174
aI226
aI198
aI223
aI202
aI268
aI210
asI100
(lp51
I284
aI195
aI136
aI153
aI166
aI255
aI130
aI166
aI199
aI172
aI66
aI135
aI198
aI164
aI183
aI297
aI130
aI110
aI203
aI202
aI154
aI229
aI220
aI190
aI137
aI246
aI140
aI163
aI138
aI202
aI278
aI179
aI190
aI199
aI251
aI79
aI239
aI198
aI265
aI161
aI215
aI142
aI224
aI201
aI152
aI167
aI236
asI101
(lp52
I91
aI161
aI124
aI162
aI229
aI187
aI145
aI195
aI95
aI140
aI104
aI144
aI141
aI309
aI153
aI117
aI127
aI86
aI104
aI135
aI167
aI175
aI96
aI88
aI140
aI150
aI104
aI184
aI143
aI54
aI58
aI154
aI122
aI113
aI153
aI228
aI159
aI133
aI122
aI160
aI164
aI157
aI160
aI108
aI188
aI111
aI135
aI105
aI134
aI106
aI233
aI126
aI134
aI136
aI114
aI103
aI112
aI158
aI92
aI88
aI98
aI110
aI152
aI95
aI107
aI150
aI142
aI83
aI270
aI93
aI78
aI148
aI264
aI99
aI190
aI129
aI150
aI91
asI103
(lp53
I106
aI149
aI150
aI182
aI180
aI143
aI78
aI99
aI107
aI93
aI103
aI194
aI116
aI120
aI308
aI111
aI183
aI228
aI161
aI192
aI213
aI234
aI245
aI141
aI356
aI128
aI178
aI197
aI135
aI229
aI178
aI126
aI196
aI125
aI120
aI109
aI133
aI177
aI139
aI171
aI193
aI227
aI89
aI133
aI228
aI162
aI164
aI192
aI169
aI183
aI121
aI275
aI346
aI105
aI172
aI288
aI144
aI240
asI107
(lp54
I97
aI124
aI90
aI118
aI126
aI168
aI139
aI139
aI108
aI186
aI149
aI167
aI191
aI88
aI103
aI96
aI191
aI132
aI89
aI159
aI84
aI173
aI152
aI105
aI94
aI158
aI189
aI140
aI110
aI153
aI147
aI117
aI117
aI181
aI181
aI118
aI76
aI132
aI120
aI119
aI83
aI122
aI84
aI152
aI109
aI219
aI194
aI132
aI105
aI158
aI174
aI127
aI156
aI172
aI128
aI151
aI117
aI129
aI169
aI168
aI163
aI202
aI136
aI79
aI185
aI136
aI113
aI155
aI191
aI113
aI116
aI217
aI354
aI247
aI115
aI284
aI119
aI151
aI289
aI154
asI108
(lp55
I113
aI241
aI317
aI150
aI247
aI110
aI162
aI223
aI208
aI134
aI115
aI85
aI141
aI301
aI127
aI123
aI161
aI186
aI103
aI149
aI124
aI144
aI114
aI158
aI238
aI155
aI159
aI229
aI198
aI183
aI147
aI123
aI258
aI161
aI130
aI189
aI96
aI110
aI150
aI300
aI171
aI164
aI81
aI100
aI122
aI237
aI81
aI145
aI141
aI113
aI171
aI164
aI231
aI93
aI119
asI109
(lp56
I177
aI117
aI103
aI126
aI162
aI75
aI83
aI124
aI124
aI110
aI161
aI91
aI109
aI150
aI212
aI130
aI217
aI123
aI144
aI145
aI131
aI131
aI348
aI128
aI112
aI142
aI171
aI295
aI173
aI135
aI190
aI82
aI94
aI140
aI126
aI148
aI134
aI108
aI77
aI132
aI130
aI129
aI157
aI140
aI153
aI78
aI98
aI175
aI154
aI163
aI136
aI140
aI286
aI152
aI153
aI75
aI141
aI197
aI152
aI120
aI155
aI120
aI184
aI139
aI251
aI151
aI135
aI115
aI195
aI176
asI110
(lp57
I97
aI161
aI178
aI171
aI272
aI161
aI129
aI155
aI166
aI147
aI135
aI124
aI174
aI167
aI135
aI137
aI438
aI132
aI100
aI179
aI150
aI113
aI92
aI161
aI104
aI128
aI152
aI135
aI78
aI138
aI72
aI87
aI150
aI210
aI133
aI163
aI134
aI112
aI144
aI155
aI176
aI113
aI146
aI152
aI157
aI151
aI188
aI108
aI155
aI200
aI99
aI136
aI141
aI137
aI124
aI194
aI153
aI126
aI101
aI146
aI115
aI130
aI120
aI176
aI131
aI102
aI94
aI86
aI83
aI133
aI191
aI109
asI115
(lp58
I109
aI159
aI121
aI164
aI103
aI234
aI120
aI156
aI131
aI113
aI195
aI122
aI127
aI140
aI122
aI133
aI179
aI157
aI146
aI129
aI100
aI127
aI110
aI132
aI129
aI166
aI146
aI114
aI110
aI98
aI152
aI72
aI156
aI128
aI182
aI121
aI125
aI122
aI176
aI133
aI103
aI112
aI207
aI167
aI215
aI142
aI207
aI102
aI138
aI196
aI138
aI79
aI157
aI175
aI131
aI147
aI107
aI150
aI135
aI117
aI119
aI303
aI146
aI140
aI209
aI175
aI155
aI125
aI133
aI118
aI92
aI155
aI122
aI88
aI85
aI113
aI143
aI116
aI131
aI128
aI132
aI129
aI185
aI111
aI187
aI196
asI116
(lp59
I112
aI98
aI91
aI150
aI87
aI171
aI139
aI201
aI213
aI136
aI231
aI180
aI96
aI152
aI123
aI111
aI95
aI99
aI158
aI130
aI174
aI197
aI154
aI205
aI148
aI119
aI156
aI181
aI101
aI143
aI137
aI130
aI87
aI81
aI101
aI93
aI98
aI79
aI121
aI187
aI160
aI174
aI184
aI130
aI236
aI312
aI155
aI163
aI154
aI107
aI107
aI255
aI122
aI162
aI205
aI134
aI95
aI94
aI313
aI125
aI130
aI119
aI135
aI90
aI133
aI82
aI162
aI127
aI223
asI117
(lp60
I86
aI146
aI217
aI144
aI74
aI112
aI129
aI110
aI136
aI270
aI147
aI136
aI150
aI151
aI120
aI138
aI124
aI167
aI187
aI101
aI95
aI137
aI173
aI115
aI132
aI162
aI161
aI102
aI170
aI170
aI129
aI211
aI208
aI201
aI94
aI80
aI110
aI155
aI129
aI89
aI106
aI74
aI98
aI59
aI92
aI107
aI183
aI250
aI200
aI177
aI134
aI132
aI143
aI133
aI95
aI106
aI175
aI101
aI130
aI133
aI136
aI106
aI124
aI184
aI111
aI116
aI209
aI182
aI130
aI167
aI147
aI102
aI91
aI88
aI187
aI105
aI100
aI190
aI123
aI180
asI121
(lp61
I204
aI107
aI183
aI207
aI191
aI85
aI113
aI154
aI269
aI197
aI128
aI198
aI183
aI160
aI132
aI122
aI215
aI195
aI122
aI146
aI247
aI314
aI221
aI188
aI140
aI221
aI188
aI145
aI189
aI144
aI102
aI136
aI137
aI113
aI187
aI217
aI200
aI90
aI140
aI192
aI136
aI166
aI133
aI176
aI298
aI256
aI234
aI189
aI148
aI214
aI250
asI122
(lp62
I125
aI97
aI102
aI179
aI216
aI90
aI180
aI66
aI157
aI135
aI101
aI141
aI142
aI117
aI135
aI324
aI89
aI210
aI184
aI146
aI93
aI147
aI121
aI184
aI103
aI171
aI126
aI173
aI114
aI89
aI178
aI85
aI120
aI127
aI126
aI148
aI133
aI79
aI147
aI167
aI132
aI136
aI133
aI150
aI123
aI122
aI299
aI107
aI140
aI189
aI113
aI123
aI124
aI99
aI94
aI82
aI131
aI103
aI93
aI185
aI120
aI175
aI174
aI202
aI210
aI152
aI103
aI109
aI144
aI97
aI155
aI222
aI179
asI123
(lp63
I95
aI140
aI134
aI289
aI105
aI134
aI132
aI103
aI139
aI109
aI183
aI143
aI164
aI98
aI145
aI107
aI111
aI160
aI143
aI142
aI102
aI159
aI132
aI124
aI108
aI198
aI92
aI92
aI147
aI157
aI163
aI98
aI99
aI114
aI197
aI131
aI134
aI122
aI94
aI138
aI130
aI192
aI158
aI68
aI258
aI163
aI199
aI111
aI106
aI165
aI144
aI85
aI146
aI102
aI111
aI119
aI126
aI183
aI127
aI73
aI157
aI74
aI152
aI245
aI245
aI147
aI182
aI160
aI104
aI85
aI233
aI174
aI156
aI133
aI126
aI128
aI93
aI109
aI149
aI120
aI143
aI167
aI148
aI131
aI132
aI126
aI144
aI200
aI151
aI103
aI119
aI153
aI141
asI124
(lp64
I173
aI320
aI273
aI157
aI175
aI165
aI172
aI145
aI119
aI81
aI133
aI133
aI82
aI135
aI241
aI159
aI208
aI159
aI149
aI203
aI119
aI183
aI156
aI126
aI120
aI105
aI85
aI109
aI116
aI145
aI197
aI89
aI68
aI168
aI115
aI92
aI75
aI128
aI77
aI86
aI113
aI99
aI107
aI90
aI173
aI110
aI125
aI241
aI149
aI186
aI125
aI234
aI308
aI188
aI73
aI263
aI144
aI151
aI96
aI128
aI303
aI87
aI115
aI81
aI82
aI141
asI129
(lp65
I158
aI157
aI128
aI96
aI179
aI78
aI108
aI105
aI152
aI130
aI123
aI152
aI219
aI92
aI155
aI142
aI394
aI192
aI81
aI139
aI149
aI113
aI138
aI153
aI228
aI165
aI119
aI213
aI229
aI115
aI95
aI113
aI153
aI216
aI117
aI181
aI133
aI144
aI194
aI164
aI193
aI115
aI156
aI94
aI111
aI243
aI84
aI140
aI87
aI126
aI177
aI230
aI154
aI222
aI143
aI262
aI108
aI144
aI133
aI117
aI141
aI104
aI130
aI138
aI109
aI136
aI83
aI129
aI125
aI84
aI187
aI117
aI99
aI196
aI82
aI91
aI200
aI222
asI130
(lp66
I98
aI155
aI159
aI106
aI154
aI136
aI238
aI81
aI94
aI147
aI150
aI224
aI152
aI145
aI130
aI142
aI167
aI81
aI80
aI101
aI154
aI81
aI239
aI111
aI127
aI128
aI102
aI175
aI225
aI341
aI197
aI286
aI211
aI182
aI136
aI103
aI251
aI93
aI130
aI166
aI307
aI185
aI175
aI133
aI128
aI260
aI155
aI113
aI152
aI173
aI92
aI109
aI121
aI78
aI192
aI188
aI99
aI215
aI186
aI86
aI160
aI136
aI88
aI123
aI91
aI74
aI143
aI164
asI133
(lp67
I110
aI242
aI185
aI138
aI120
aI154
aI161
aI92
aI125
aI75
aI165
aI171
aI125
aI168
aI135
aI87
aI125
aI187
aI208
aI187
aI196
aI69
aI115
aI170
aI114
aI164
aI137
aI98
aI324
aI224
aI167
aI164
aI190
aI163
aI115
aI145
aI83
aI139
aI163
aI176
aI142
aI145
aI175
aI140
aI158
aI230
aI230
aI197
aI133
aI220
aI118
aI162
aI130
aI152
aI98
aI211
aI147
aI174
asI134
(lp68
I84
aI109
aI323
aI152
aI120
aI161
aI173
aI75
aI169
aI107
aI106
aI105
aI128
aI100
aI78
aI111
aI132
aI207
aI193
aI139
aI90
aI89
aI247
aI147
aI142
aI96
aI204
aI213
aI164
aI115
aI122
aI184
aI194
aI115
aI102
aI87
aI237
aI118
aI128
aI270
aI165
aI166
aI241
aI214
aI123
aI150
aI109
aI187
aI312
aI150
aI148
aI87
aI275
aI97
aI172
aI103
aI117
aI231
aI148
aI149
aI111
aI134
aI133
aI177
aI229
aI95
aI124
asI135
(lp69
I193
aI112
aI162
aI123
aI134
aI176
aI93
aI247
aI323
aI214
aI93
aI151
aI185
aI291
aI177
aI171
aI194
aI195
aI128
aI129
aI241
aI129
aI269
aI151
aI207
aI200
aI89
aI123
aI94
aI245
aI136
aI158
aI299
aI208
aI147
aI169
aI85
aI267
aI189
aI408
aI105
aI112
aI322
aI230
aI192
aI118
aI161
aI93
aI106
aI162
aI118
aI91
aI160
aI196
aI180
aI150
aI155
aI121
asI139
(lp70
I118
aI202
aI200
aI88
aI202
aI211
aI93
aI113
aI110
aI171
aI163
aI161
aI73
aI150
aI213
aI174
aI234
aI135
aI126
aI210
aI183
aI144
aI127
aI135
aI200
aI89
aI149
aI101
aI145
aI214
aI102
aI83
aI118
aI143
aI97
aI89
aI158
aI116
aI88
aI82
aI176
aI187
aI122
aI436
aI337
aI84
aI186
aI90
aI140
aI326
aI216
aI129
aI259
aI184
aI107
aI111
aI204
aI216
aI223
aI219
aI108
aI90
aI189
aI102
aI172
aI93
aI107
asI140
(lp71
I60
aI137
aI117
aI91
aI143
aI82
aI75
aI111
aI93
aI79
aI109
aI199
aI210
aI97
aI160
aI170
aI152
aI83
aI228
aI75
aI114
aI148
aI115
aI146
aI139
aI90
aI88
aI193
aI180
aI86
aI86
aI159
aI98
aI75
aI117
aI118
aI98
aI139
aI111
aI84
aI174
aI124
aI151
aI129
aI117
aI158
aI122
aI105
aI89
aI134
aI80
aI68
aI166
aI249
aI122
aI132
aI188
aI83
aI202
aI84
aI143
aI89
aI154
aI102
aI162
aI115
aI179
aI135
aI166
aI111
aI90
aI162
aI171
aI122
aI219
asI143
(lp72
I220
aI299
aI336
aI119
aI157
aI143
aI171
aI145
aI191
aI154
aI135
aI189
aI225
aI160
aI109
aI95
aI306
aI148
aI215
aI119
aI155
aI216
aI133
aI116
aI114
aI176
aI134
aI203
aI113
aI157
aI125
aI321
aI183
aI137
aI81
aI143
aI283
aI230
aI85
aI208
aI139
aI111
aI126
aI152
aI93
aI272
aI155
aI136
aI184
aI147
aI79
aI171
aI167
aI196
aI141
aI137
aI137
aI215
aI151
asI144
(lp73
I167
aI178
aI208
aI187
aI157
aI159
aI124
aI155
aI260
aI77
aI135
aI159
aI162
aI139
aI165
aI116
aI188
aI156
aI142
aI183
aI157
aI87
aI131
aI81
aI85
aI211
aI147
aI81
aI236
aI365
aI150
aI102
aI145
aI195
aI286
aI152
aI108
aI132
aI104
aI149
aI76
aI152
aI116
aI142
aI108
aI123
aI105
aI114
aI205
aI132
aI236
aI89
aI102
aI108
aI180
asI149
(lp74
I128
aI115
aI100
aI134
aI83
aI138
aI82
aI129
aI71
aI106
aI78
aI90
aI91
aI156
aI97
aI112
aI75
aI97
aI220
aI144
aI208
aI266
aI143
aI175
aI148
aI232
aI142
aI125
aI75
aI130
aI246
aI89
aI86
aI62
aI86
aI112
aI80
aI160
aI93
aI202
aI115
aI134
aI123
aI162
aI138
aI131
aI141
aI178
aI160
aI145
aI172
aI311
aI156
aI144
aI114
aI170
aI197
aI155
aI119
aI115
aI112
aI88
aI211
aI131
aI175
aI143
aI222
asI150
(lp75
I165
aI172
aI124
aI81
aI184
aI78
aI121
aI95
aI286
aI92
aI124
aI105
aI130
aI154
aI210
aI104
aI99
aI181
aI170
aI111
aI153
aI136
aI121
aI137
aI214
aI158
aI170
aI135
aI124
aI219
aI160
aI185
aI100
aI176
aI193
aI164
aI87
aI117
aI222
aI128
aI170
aI106
aI132
aI139
aI177
aI150
aI151
aI187
aI161
aI298
aI190
aI245
aI132
aI119
aI136
aI214
asI151
(lp76
I164
aI90
aI182
aI111
aI70
aI91
aI99
aI135
aI183
aI100
aI87
aI135
aI148
aI123
aI200
aI114
aI125
aI108
aI69
aI187
aI161
aI128
aI327
aI111
aI161
aI132
aI89
aI102
aI162
aI155
aI90
aI92
aI153
aI133
aI171
aI197
aI210
aI83
aI263
aI116
aI233
aI174
aI125
aI170
aI99
aI131
aI158
aI97
aI124
aI130
aI100
aI114
aI109
aI129
aI221
aI261
aI250
aI173
aI132
aI77
asI152
(lp77
I167
aI216
aI125
aI213
aI247
aI128
aI192
aI138
aI111
aI165
aI96
aI172
aI208
aI240
aI137
aI167
aI288
aI190
aI144
aI147
aI106
aI176
aI147
aI170
aI140
aI182
aI156
aI141
aI101
aI168
aI322
aI109
aI137
aI175
aI251
aI149
aI140
aI159
aI110
aI82
aI93
aI209
aI99
aI138
aI138
aI177
aI167
aI153
aI111
aI102
aI90
aI100
aI244
aI108
aI169
aI116
aI99
aI99
asI153
(lp78
I191
aI111
aI110
aI226
aI207
aI196
aI184
aI137
aI139
aI104
aI216
aI189
aI169
aI84
aI156
aI141
aI82
aI74
aI98
aI116
aI133
aI82
aI93
aI243
aI221
aI83
aI132
aI70
aI116
aI172
aI133
aI166
aI220
aI183
aI261
aI98
aI145
aI114
aI91
aI140
aI78
aI112
aI97
aI163
aI91
aI117
aI118
aI130
aI148
aI121
aI89
aI106
aI186
aI228
aI280
aI187
aI233
aI248
asI161
(lp79
I82
aI217
aI74
aI144
aI171
aI145
aI187
aI109
aI144
aI118
aI158
aI163
aI260
aI177
aI117
aI239
aI193
aI98
aI142
aI160
aI160
aI135
aI246
aI80
aI95
aI196
aI103
aI93
aI91
aI163
aI120
aI108
aI150
aI219
aI188
aI165
aI150
aI138
aI156
aI329
aI163
aI231
aI68
aI165
aI141
aI225
aI128
aI203
aI199
aI113
aI325
aI122
aI153
asI162
(lp80
I118
aI144
aI294
aI303
aI137
aI171
aI254
aI81
aI140
aI285
aI146
aI168
aI209
aI142
aI134
aI183
aI206
aI98
aI99
aI203
aI151
aI185
aI101
aI85
aI151
aI133
aI300
aI214
aI239
aI191
aI146
aI276
aI118
aI136
aI118
aI130
aI162
aI117
aI111
aI174
aI157
aI166
aI176
aI94
aI126
aI128
aI149
aI113
aI121
asI163
(lp81
I181
aI274
aI155
aI296
aI151
aI128
aI158
aI115
aI167
aI171
aI113
aI130
aI88
aI134
aI75
aI158
aI74
aI130
aI187
aI281
aI186
aI102
aI154
aI287
aI166
aI110
aI224
aI115
aI156
aI281
aI145
aI103
aI167
aI259
aI170
aI137
aI115
aI109
aI102
aI152
aI114
aI165
aI220
aI143
aI135
aI142
aI169
aI118
aI118
aI163
aI99
aI200
aI167
aI101
aI114
aI128
asI164
(lp82
I98
aI166
aI93
aI146
aI203
aI186
aI167
aI160
aI91
aI179
aI158
aI97
aI244
aI77
aI143
aI214
aI103
aI93
aI205
aI259
aI223
aI231
aI148
aI223
aI269
aI190
aI149
aI122
aI151
aI248
aI160
aI186
aI169
aI114
aI138
aI155
aI201
aI99
aI262
aI201
aI122
aI138
aI181
aI170
aI157
aI248
aI277
aI257
aI329
aI220
aI179
aI267
asI168
(lp83
I131
aI101
aI115
aI93
aI82
aI79
aI118
aI166
aI208
aI239
aI163
aI267
aI239
aI149
aI174
aI278
aI178
aI142
aI262
aI121
aI380
aI197
aI158
aI171
aI193
aI214
aI215
aI113
aI190
aI167
aI232
aI118
aI205
aI173
aI134
aI231
aI129
aI107
aI128
aI171
aI94
aI124
aI184
aI177
aI175
aI127
aI164
aI156
aI98
aI161
aI238
aI163
aI129
aI210
aI140
aI101
aI204
aI199
aI179
aI163
asI169
(lp84
I191
aI190
aI116
aI287
aI187
aI176
aI136
aI157
aI172
aI96
aI86
aI250
aI198
aI107
aI151
aI129
aI131
aI91
aI88
aI109
aI100
aI92
aI260
aI185
aI136
aI97
aI84
aI165
aI208
aI116
aI109
aI119
aI144
aI129
aI281
aI127
aI241
aI143
aI116
aI80
aI81
aI95
aI124
aI153
aI198
aI148
aI79
aI127
aI138
aI161
aI265
aI130
aI194
aI179
aI187
aI129
aI117
aI118
asI170
(lp85
I135
aI168
aI269
aI159
aI101
aI58
aI85
aI240
aI171
aI160
aI108
aI209
aI95
aI151
aI147
aI96
aI92
aI98
aI132
aI113
aI132
aI211
aI140
aI302
aI147
aI102
aI155
aI90
aI122
aI152
aI194
aI141
aI147
aI122
aI112
aI166
aI189
aI150
aI161
aI144
aI206
aI223
aI176
aI131
aI124
aI138
aI134
aI77
aI126
aI134
aI173
aI158
aI279
aI100
aI117
aI119
aI114
aI143
aI181
aI169
aI251
asI173
(lp86
I115
aI118
aI162
aI167
aI111
aI189
aI101
aI152
aI81
aI280
aI157
aI105
aI96
aI89
aI112
aI127
aI249
aI228
aI241
aI106
aI178
aI134
aI129
aI171
aI165
aI101
aI136
aI189
aI127
aI255
aI177
aI166
aI108
aI171
aI127
aI193
aI138
aI80
aI156
aI121
aI135
aI94
aI234
aI87
aI91
aI123
aI146
aI174
aI135
aI169
aI115
aI192
aI112
aI177
asI175
(lp87
I133
aI143
aI150
aI176
aI209
aI175
aI116
aI242
aI175
aI127
aI145
aI225
aI254
aI129
aI243
aI173
aI136
aI164
aI256
aI113
aI190
aI182
aI97
aI106
aI98
aI105
aI95
aI62
aI129
aI91
aI134
aI124
aI127
aI100
aI110
aI121
aI154
aI98
aI99
aI112
aI116
aI162
aI106
aI133
aI102
aI89
aI222
aI145
aI172
aI163
aI273
aI242
aI157
aI157
aI168
aI323
aI215
aI150
aI139
aI90
aI278
aI99
asI176
(lp88
I104
aI167
aI147
aI90
aI147
aI93
aI105
aI63
aI141
aI117
aI152
aI97
aI84
aI68
aI135
aI169
aI155
aI162
aI198
aI94
aI125
aI145
aI90
aI166
aI94
aI117
aI128
aI124
aI167
aI265
aI204
aI91
aI151
aI178
aI218
aI155
aI100
aI158
aI104
aI162
aI226
aI216
aI342
aI124
aI258
aI213
aI108
aI108
aI158
aI159
aI164
aI225
aI122
aI143
aI135
aI112
aI174
aI129
aI116
aI141
aI98
aI199
aI128
aI118
aI148
aI133
aI174
aI164
aI158
aI148
aI127
asI177
(lp89
I103
aI178
aI154
aI157
aI224
aI127
aI134
aI270
aI239
aI186
aI109
aI136
aI112
aI205
aI104
aI219
aI247
aI114
aI202
aI158
aI100
aI142
aI209
aI221
aI164
aI206
aI99
aI106
aI100
aI146
aI122
aI154
aI211
aI104
aI102
aI131
aI145
aI133
aI178
aI220
aI171
aI160
aI162
aI227
aI98
aI113
aI192
aI129
aI298
aI108
aI178
asI179
(lp90
I279
aI136
aI109
aI97
aI123
aI95
aI154
aI75
aI130
aI122
aI168
aI155
aI105
aI78
aI200
aI120
aI278
aI170
aI128
aI191
aI193
aI90
aI170
aI160
aI183
aI245
aI257
aI173
aI121
aI110
aI105
aI169
aI202
aI167
aI93
aI121
aI192
aI170
aI103
aI199
aI81
aI154
aI310
aI172
aI222
aI89
asI182
(lp91
I308
aI167
aI168
aI127
aI172
aI350
aI145
aI103
aI189
aI243
aI186
aI141
aI216
aI148
aI179
aI189
aI124
aI177
aI140
aI147
aI138
aI172
aI95
aI191
aI128
aI143
aI255
aI167
aI106
aI121
aI185
aI84
aI257
aI127
aI262
aI145
aI126
aI86
aI290
aI190
aI173
aI265
aI150
aI172
aI170
aI256
aI163
aI171
aI171
aI173
aI124
aI158
aI227
aI201
aI270
aI75
asI186
(lp92
I150
aI203
aI162
aI126
aI239
aI234
aI130
aI122
aI274
aI237
aI212
aI126
aI166
aI214
aI130
aI115
aI189
aI255
aI174
aI175
aI155
aI145
aI197
aI121
aI198
aI154
aI199
aI115
aI150
aI122
aI120
aI196
aI283
aI157
aI166
aI158
aI168
aI123
aI271
aI321
aI278
aI261
aI145
aI191
aI194
aI109
asI187
(lp93
I148
aI123
aI254
aI149
aI159
aI110
aI200
aI125
aI199
aI181
aI234
aI221
aI189
aI104
aI200
aI121
aI113
aI229
aI183
aI106
aI148
aI81
aI144
aI161
aI213
aI151
aI163
aI176
aI284
aI232
aI204
aI187
aI272
aI143
aI198
aI207
aI116
aI275
aI133
aI128
aI232
aI151
aI122
aI196
aI130
aI239
aI99
aI135
aI108
aI108
aI261
aI183
aI156
aI105
aI203
aI148
aI145
aI132
aI168
asI188
(lp94
I81
aI374
aI263
aI154
aI190
aI178
aI126
aI145
aI96
aI172
aI141
aI96
aI179
aI164
aI115
aI232
aI119
aI114
aI261
aI162
aI147
aI127
aI158
aI129
aI193
aI238
aI102
aI139
aI193
aI139
aI110
aI130
aI162
aI144
aI241
aI86
aI310
aI130
aI280
aI210
aI174
aI240
aI183
aI160
aI125
aI160
aI114
aI174
aI180
aI195
aI207
aI139
aI110
aI198
aI180
aI156
aI121
aI149
aI243
aI134
aI144
aI109
aI178
aI103
asI190
(lp95
I103
aI136
aI172
aI109
aI140
aI255
aI234
aI177
aI181
aI120
aI117
aI76
aI211
aI269
aI96
aI107
aI97
aI167
aI171
aI138
aI170
aI139
aI174
aI244
aI214
aI188
aI155
aI103
aI176
aI209
aI196
aI235
aI91
aI115
aI181
aI162
aI176
aI118
aI196
aI241
aI131
aI164
aI230
aI154
aI212
aI169
aI155
aI125
aI217
aI271
aI93
aI107
asI193
(lp96
I146
aI128
aI90
aI224
aI153
aI236
aI165
aI138
aI85
aI214
aI186
aI210
aI159
aI236
aI165
aI207
aI198
aI224
aI98
aI80
aI97
aI144
aI160
aI115
aI133
aI215
aI155
aI184
aI196
aI135
aI139
aI164
aI145
aI115
aI143
aI178
aI195
aI200
aI102
aI87
aI73
aI261
aI97
aI148
aI97
aI244
aI167
aI165
aI159
aI207
aI284
aI166
aI172
aI153
aI201
aI129
aI180
aI115
aI325
aI110
aI84
aI155
asI194
(lp97
I220
aI159
aI121
aI248
aI106
aI219
aI122
aI274
aI222
aI144
aI136
aI164
aI221
aI148
aI94
aI179
aI135
aI80
aI105
aI112
aI103
aI136
aI315
aI145
aI190
aI175
aI166
aI207
aI160
aI172
aI209
aI164
aI106
aI368
aI199
aI251
aI266
aI146
aI169
aI218
aI135
aI184
aI311
aI236
aI289
aI237
aI172
aI179
aI183
aI214
aI140
aI205
aI186
aI104
aI185
aI405
aI225
aI141
aI100
asI195
(lp98
I190
aI163
aI192
aI304
aI207
aI160
aI91
aI265
aI130
aI169
aI106
aI118
aI119
aI237
aI179
aI189
aI112
aI112
aI214
aI264
aI182
aI150
aI142
aI140
aI190
aI151
aI177
aI266
aI185
aI130
aI173
aI90
aI124
aI325
aI145
aI121
aI153
aI166
aI242
aI250
aI205
aI112
aI138
aI214
aI233
aI230
aI165
aI143
aI232
aI177
asI198
(lp99
I110
aI124
aI192
aI149
aI166
aI94
aI101
aI216
aI241
aI157
aI84
aI218
aI130
aI200
aI152
aI200
aI200
aI127
aI168
aI176
aI99
aI233
aI124
aI122
aI192
aI143
aI152
aI118
aI127
aI151
aI182
aI187
aI317
aI180
aI146
aI256
aI202
aI122
aI180
aI200
aI124
aI235
aI295
aI128
aI144
aI123
aI231
aI194
aI142
aI140
aI176
aI152
aI195
aI126
aI130
aI173
aI131
aI89
aI176
aI186
aI132
aI109
aI136
aI360
aI192
asI200
(lp100
I125
aI240
aI144
aI176
aI346
aI212
aI398
aI89
aI151
aI132
aI121
aI185
aI137
aI229
aI146
aI276
aI192
aI188
aI190
aI207
aI172
aI184
aI171
aI170
aI248
aI221
aI292
aI203
aI111
aI141
aI92
aI70
aI129
aI425
aI303
aI177
aI120
aI212
aI157
aI151
aI206
aI183
aI299
aI232
aI149
aI140
aI146
aI134
aI139
as.